(dp0
I10
(lp1
(dp2
S'obj_LP'
p3
F5.0
sS'obj_IP'
p4
F5.0
sS'obj_RG'
p5
I5
sS'type'
p6
S'rand'
p7
sS'k'
p8
I2
sS't_solve_IP'
p9
F0.07974910736083984
sS'n'
p10
I10
sS'm'
p11
I18
sS't_solve:RG'
p12
F0.0007460117340087891
sS't_solve_LP'
p13
F0.08690094947814941
sa(dp14
g3
F0.0
sg4
F0.0
sg5
I0
sg6
g7
sg8
I2
sg9
F0.05028510093688965
sg10
I10
sg11
I8
sg12
F0.00028896331787109375
sg13
F0.05170798301696777
sa(dp15
g3
F2.0
sg4
F2.0
sg5
I2
sg6
g7
sg8
I2
sg9
F0.06809020042419434
sg10
I10
sg11
I15
sg12
F0.0006208419799804688
sg13
F0.06778502464294434
sa(dp16
g3
F4.0
sg4
F4.0
sg5
I4
sg6
g7
sg8
I2
sg9
F0.07738804817199707
sg10
I10
sg11
I15
sg12
F0.00080108642578125
sg13
F0.05936598777770996
sa(dp17
g3
F3.0
sg4
F3.0
sg5
I3
sg6
g7
sg8
I2
sg9
F0.05920886993408203
sg10
I10
sg11
I13
sg12
F0.0005719661712646484
sg13
F0.06291317939758301
sasI20
(lp18
(dp19
g3
F18.0
sg4
F18.0
sg5
I18
sg6
g7
sg8
I4
sg9
F0.22643709182739258
sg10
I20
sg11
I63
sg12
F0.0020170211791992188
sg13
F0.3540689945220947
sa(dp20
g3
F11.0
sg4
F11.0
sg5
I11
sg6
g7
sg8
I4
sg9
F0.1610250473022461
sg10
I20
sg11
I45
sg12
F0.0014870166778564453
sg13
F0.10920190811157227
sa(dp21
g3
F13.0
sg4
F13.0
sg5
I13
sg6
g7
sg8
I4
sg9
F0.36156296730041504
sg10
I20
sg11
I54
sg12
F0.004441976547241211
sg13
F0.141448974609375
sa(dp22
g3
F5.0
sg4
F5.0
sg5
I5
sg6
g7
sg8
I4
sg9
F0.2579479217529297
sg10
I20
sg11
I45
sg12
F0.0037190914154052734
sg13
F0.32659101486206055
sa(dp23
g3
F14.0
sg4
F14.0
sg5
I14
sg6
g7
sg8
I4
sg9
F0.29293012619018555
sg10
I20
sg11
I58
sg12
F0.0031919479370117188
sg13
F0.3261079788208008
sas.