(dp0
I1
(lp1
(dp2
S'obj_LP'
p3
F5.0
sS't_RG'
p4
F0.013303041458129883
sS'obj_RG'
p5
I5
sS'type'
p6
S'grid'
p7
sS'k'
p8
I1
sS'n'
p9
I120
sS'm'
p10
I416
sS't_solve_LP'
p11
F2.1726698875427246
sa(dp12
g3
F8.0
sg4
F0.013654947280883789
sg5
I8
sg6
g7
sg8
I1
sg9
I120
sg10
I416
sg11
F2.4080960750579834
sa(dp13
g3
F3.0
sg4
F0.013595104217529297
sg5
I3
sg6
g7
sg8
I1
sg9
I120
sg10
I416
sg11
F2.3104639053344727
sa(dp14
g3
F3.0
sg4
F0.01379704475402832
sg5
I3
sg6
g7
sg8
I1
sg9
I120
sg10
I416
sg11
F2.177419900894165
sa(dp15
g3
F8.0
sg4
F0.013787031173706055
sg5
I8
sg6
g7
sg8
I1
sg9
I120
sg10
I416
sg11
F2.3738858699798584
sa(dp16
g3
F8.0
sg4
F0.01349496841430664
sg5
I8
sg6
g7
sg8
I1
sg9
I120
sg10
I416
sg11
F2.3123080730438232
sa(dp17
g3
F5.0
sg4
F0.01382899284362793
sg5
I5
sg6
g7
sg8
I1
sg9
I120
sg10
I416
sg11
F2.2880051136016846
sa(dp18
g3
F5.0
sg4
F0.013279199600219727
sg5
I5
sg6
g7
sg8
I1
sg9
I120
sg10
I416
sg11
F2.1500751972198486
sa(dp19
g3
F5.0
sg4
F0.01349496841430664
sg5
I5
sg6
g7
sg8
I1
sg9
I120
sg10
I416
sg11
F2.1655309200286865
sa(dp20
g3
F8.0
sg4
F0.013733863830566406
sg5
I8
sg6
g7
sg8
I1
sg9
I120
sg10
I416
sg11
F2.288351058959961
sasI2
(lp21
(dp22
g3
F13.0
sg4
F0.014770984649658203
sg5
I13
sg6
g7
sg8
I2
sg9
I120
sg10
I416
sg11
F5.315541982650757
sa(dp23
g3
F13.0
sg4
F0.014872074127197266
sg5
I13
sg6
g7
sg8
I2
sg9
I120
sg10
I416
sg11
F5.946853876113892
sa(dp24
g3
F16.0
sg4
F0.015163183212280273
sg5
I16
sg6
g7
sg8
I2
sg9
I120
sg10
I416
sg11
F3.580772876739502
sa(dp25
g3
F16.0
sg4
F0.014887094497680664
sg5
I16
sg6
g7
sg8
I2
sg9
I120
sg10
I416
sg11
F2.3159098625183105
sa(dp26
g3
F13.0
sg4
F0.022569894790649414
sg5
I13
sg6
g7
sg8
I2
sg9
I120
sg10
I416
sg11
F4.472878932952881
sa(dp27
g3
F13.0
sg4
F0.014751911163330078
sg5
I13
sg6
g7
sg8
I2
sg9
I120
sg10
I416
sg11
F4.846620082855225
sa(dp28
g3
F13.0
sg4
F0.024458885192871094
sg5
I13
sg6
g7
sg8
I2
sg9
I120
sg10
I416
sg11
F3.504396915435791
sa(dp29
g3
F8.0
sg4
F0.022511959075927734
sg5
I8
sg6
g7
sg8
I2
sg9
I120
sg10
I416
sg11
F2.3521358966827393
sa(dp30
g3
F14.0
sg4
F0.014739990234375
sg5
I14
sg6
g7
sg8
I2
sg9
I120
sg10
I416
sg11
F4.316638946533203
sa(dp31
g3
F11.0
sg4
F0.023001909255981445
sg5
I11
sg6
g7
sg8
I2
sg9
I120
sg10
I416
sg11
F2.494156837463379
sasI3
(lp32
(dp33
g3
F19.0
sg4
F0.02445197105407715
sg5
I19
sg6
g7
sg8
I3
sg9
I120
sg10
I416
sg11
F3.274139881134033
sa(dp34
g3
F14.0
sg4
F0.024594783782958984
sg5
I14
sg6
g7
sg8
I3
sg9
I120
sg10
I416
sg11
F2.253002882003784
sa(dp35
g3
F21.0
sg4
F0.024672985076904297
sg5
I21
sg6
g7
sg8
I3
sg9
I120
sg10
I416
sg11
F6.127233028411865
sa(dp36
g3
F16.0
sg4
F0.02484297752380371
sg5
I16
sg6
g7
sg8
I3
sg9
I120
sg10
I416
sg11
F2.9191088676452637
sa(dp37
g3
F15.0
sg4
F0.02399611473083496
sg5
I15
sg6
g7
sg8
I3
sg9
I120
sg10
I416
sg11
F2.303370952606201
sa(dp38
g3
F13.0
sg4
F0.02375006675720215
sg5
I13
sg6
g7
sg8
I3
sg9
I120
sg10
I416
sg11
F3.548495054244995
sa(dp39
g3
F17.99999999999992
sg4
F0.024574995040893555
sg5
I18
sg6
g7
sg8
I3
sg9
I120
sg10
I416
sg11
F5.564827919006348
sa(dp40
g3
F13.0
sg4
F0.02456498146057129
sg5
I13
sg6
g7
sg8
I3
sg9
I120
sg10
I416
sg11
F3.387392044067383
sa(dp41
g3
F17.0
sg4
F0.033080101013183594
sg5
I17
sg6
g7
sg8
I3
sg9
I120
sg10
I416
sg11
F4.702219009399414
sa(dp42
g3
F21.000000000005667
sg4
F0.03167009353637695
sg5
I21
sg6
g7
sg8
I3
sg9
I120
sg10
I416
sg11
F7.255535125732422
sasI4
(lp43
(dp44
g3
F26.000000000027406
sg4
F0.025528907775878906
sg5
I26
sg6
g7
sg8
I4
sg9
I120
sg10
I416
sg11
F8.047147035598755
sa(dp45
g3
F26.0
sg4
F0.03259992599487305
sg5
I26
sg6
g7
sg8
I4
sg9
I120
sg10
I416
sg11
F7.64854097366333
sa(dp46
g3
F20.0
sg4
F0.025699138641357422
sg5
I20
sg6
g7
sg8
I4
sg9
I120
sg10
I416
sg11
F6.550742864608765
sa(dp47
g3
F27.0
sg4
F0.025569915771484375
sg5
I27
sg6
g7
sg8
I4
sg9
I120
sg10
I416
sg11
F2.666646957397461
sa(dp48
g3
F29.00000000005314
sg4
F0.02547907829284668
sg5
I29
sg6
g7
sg8
I4
sg9
I120
sg10
I416
sg11
F8.47263216972351
sa(dp49
g3
F29.00000000009845
sg4
F0.02523207664489746
sg5
I29
sg6
g7
sg8
I4
sg9
I120
sg10
I416
sg11
F7.87728214263916
sa(dp50
g3
F23.0
sg4
F0.024990081787109375
sg5
I23
sg6
g7
sg8
I4
sg9
I120
sg10
I416
sg11
F5.152825117111206
sa(dp51
g3
F27.00000000003902
sg4
F0.025689125061035156
sg5
I27
sg6
g7
sg8
I4
sg9
I120
sg10
I416
sg11
F7.995537042617798
sa(dp52
g3
F23.0
sg4
F0.025938987731933594
sg5
I23
sg6
g7
sg8
I4
sg9
I120
sg10
I416
sg11
F4.147135019302368
sa(dp53
g3
F25.0
sg4
F0.024623870849609375
sg5
I25
sg6
g7
sg8
I4
sg9
I120
sg10
I416
sg11
F7.697742938995361
sasI5
(lp54
(dp55
g3
F25.000000000022535
sg4
F0.02732706069946289
sg5
I25
sg6
g7
sg8
I5
sg9
I120
sg10
I416
sg11
F7.8692169189453125
sa(dp56
g3
F25.000000000014385
sg4
F0.027253150939941406
sg5
I25
sg6
g7
sg8
I5
sg9
I120
sg10
I416
sg11
F7.764960050582886
sa(dp57
g3
F32.0000000000317
sg4
F0.0341951847076416
sg5
I32
sg6
g7
sg8
I5
sg9
I120
sg10
I416
sg11
F7.8397698402404785
sa(dp58
g3
F30.999999999999982
sg4
F0.026791095733642578
sg5
I31
sg6
g7
sg8
I5
sg9
I120
sg10
I416
sg11
F7.678022146224976
sa(dp59
g3
F26.000000000013593
sg4
F0.02691507339477539
sg5
I26
sg6
g7
sg8
I5
sg9
I120
sg10
I416
sg11
F7.334306955337524
sa(dp60
g3
F31.000000000003574
sg4
F0.026478052139282227
sg5
I31
sg6
g7
sg8
I5
sg9
I120
sg10
I416
sg11
F8.165162801742554
sa(dp61
g3
F31.00000000003338
sg4
F0.028009891510009766
sg5
I31
sg6
g7
sg8
I5
sg9
I120
sg10
I416
sg11
F9.10710597038269
sa(dp62
g3
F24.0
sg4
F0.028483152389526367
sg5
I24
sg6
g7
sg8
I5
sg9
I120
sg10
I416
sg11
F9.504696130752563
sa(dp63
g3
F29.0000000000001
sg4
F0.03658008575439453
sg5
I29
sg6
g7
sg8
I5
sg9
I120
sg10
I416
sg11
F8.071016073226929
sa(dp64
g3
F28.000000000024624
sg4
F0.04881691932678223
sg5
I28
sg6
g7
sg8
I5
sg9
I120
sg10
I416
sg11
F9.206597089767456
sasI6
(lp65
(dp66
g3
F33.00000000000774
sg4
F0.03537797927856445
sg5
I33
sg6
g7
sg8
I6
sg9
I120
sg10
I416
sg11
F8.932950019836426
sa(dp67
g3
F32.999999999999986
sg4
F0.04496312141418457
sg5
I33
sg6
g7
sg8
I6
sg9
I120
sg10
I416
sg11
F7.388906955718994
sa(dp68
g3
F29.000000000018105
sg4
F0.0281369686126709
sg5
I29
sg6
g7
sg8
I6
sg9
I120
sg10
I416
sg11
F8.232879877090454
sa(dp69
g3
F29.00000000000484
sg4
F0.02802896499633789
sg5
I29
sg6
g7
sg8
I6
sg9
I120
sg10
I416
sg11
F8.24169111251831
sa(dp70
g3
F31.000000000022883
sg4
F0.03052806854248047
sg5
I31
sg6
g7
sg8
I6
sg9
I120
sg10
I416
sg11
F7.879069089889526
sa(dp71
g3
F27.000000000139583
sg4
F0.028556108474731445
sg5
I27
sg6
g7
sg8
I6
sg9
I120
sg10
I416
sg11
F8.666471004486084
sa(dp72
g3
F30.000000000051685
sg4
F0.03680014610290527
sg5
I30
sg6
g7
sg8
I6
sg9
I120
sg10
I416
sg11
F8.996793985366821
sa(dp73
g3
F33.0
sg4
F0.04168105125427246
sg5
I33
sg6
g7
sg8
I6
sg9
I120
sg10
I416
sg11
F5.460787057876587
sa(dp74
g3
F38.00000000007605
sg4
F0.03569602966308594
sg5
I38
sg6
g7
sg8
I6
sg9
I120
sg10
I416
sg11
F8.13287901878357
sa(dp75
g3
F35.000000000023206
sg4
F0.028244972229003906
sg5
I35
sg6
g7
sg8
I6
sg9
I120
sg10
I416
sg11
F7.906509160995483
sasI7
(lp76
(dp77
g3
F33.00000000000466
sg4
F0.029275178909301758
sg5
I33
sg6
g7
sg8
I7
sg9
I120
sg10
I416
sg11
F7.808740854263306
sa(dp78
g3
F41.99999999999995
sg4
F0.04450798034667969
sg5
I42
sg6
g7
sg8
I7
sg9
I120
sg10
I416
sg11
F7.985123157501221
sa(dp79
g3
F29.999999999999954
sg4
F0.029330968856811523
sg5
I30
sg6
g7
sg8
I7
sg9
I120
sg10
I416
sg11
F8.404201984405518
sa(dp80
g3
F36.00000000000008
sg4
F0.02994704246520996
sg5
I36
sg6
g7
sg8
I7
sg9
I120
sg10
I416
sg11
F7.868246078491211
sa(dp81
g3
F30.000000000020147
sg4
F0.03266406059265137
sg5
I30
sg6
g7
sg8
I7
sg9
I120
sg10
I416
sg11
F8.01772403717041
sa(dp82
g3
F32.0
sg4
F0.04515790939331055
sg5
I32
sg6
g7
sg8
I7
sg9
I120
sg10
I416
sg11
F6.72477912902832
sa(dp83
g3
F33.000000000031356
sg4
F0.02942514419555664
sg5
I33
sg6
g7
sg8
I7
sg9
I120
sg10
I416
sg11
F8.180419921875
sa(dp84
g3
F26.0
sg4
F0.029426097869873047
sg5
I26
sg6
g7
sg8
I7
sg9
I120
sg10
I416
sg11
F4.932265043258667
sa(dp85
g3
F33.00000000003697
sg4
F0.04375505447387695
sg5
I33
sg6
g7
sg8
I7
sg9
I120
sg10
I416
sg11
F8.177113056182861
sa(dp86
g3
F28.00000000000046
sg4
F0.04305601119995117
sg5
I28
sg6
g7
sg8
I7
sg9
I120
sg10
I416
sg11
F7.976369857788086
sasI8
(lp87
(dp88
g3
F34.00000000007305
sg4
F0.031625986099243164
sg5
I34
sg6
g7
sg8
I8
sg9
I120
sg10
I416
sg11
F9.278969049453735
sa(dp89
g3
F36.00000000007732
sg4
F0.0642251968383789
sg5
I36
sg6
g7
sg8
I8
sg9
I120
sg10
I416
sg11
F8.081010103225708
sa(dp90
g3
F38.00000000003725
sg4
F0.03910708427429199
sg5
I45
sg6
g7
sg8
I8
sg9
I120
sg10
I416
sg11
F8.091742992401123
sa(dp91
g3
F36.00000000000339
sg4
F0.038804054260253906
sg5
I36
sg6
g7
sg8
I8
sg9
I120
sg10
I416
sg11
F8.059498071670532
sa(dp92
g3
F45.00000000000357
sg4
F0.038459062576293945
sg5
I45
sg6
g7
sg8
I8
sg9
I120
sg10
I416
sg11
F7.65104603767395
sa(dp93
g3
F35.000000000014154
sg4
F0.03094005584716797
sg5
I35
sg6
g7
sg8
I8
sg9
I120
sg10
I416
sg11
F8.302836179733276
sa(dp94
g3
F37.00000000000276
sg4
F0.03785514831542969
sg5
I37
sg6
g7
sg8
I8
sg9
I120
sg10
I416
sg11
F8.254782915115356
sa(dp95
g3
F33.00000000000085
sg4
F0.030643939971923828
sg5
I33
sg6
g7
sg8
I8
sg9
I120
sg10
I416
sg11
F8.090739965438843
sa(dp96
g3
F24.0
sg4
F0.03135204315185547
sg5
I24
sg6
g7
sg8
I8
sg9
I120
sg10
I416
sg11
F5.295111894607544
sa(dp97
g3
F34.00000000000844
sg4
F0.03040313720703125
sg5
I34
sg6
g7
sg8
I8
sg9
I120
sg10
I416
sg11
F8.269216060638428
sasI9
(lp98
(dp99
g3
F43.00000000000255
sg4
F0.03160381317138672
sg5
I43
sg6
g7
sg8
I9
sg9
I120
sg10
I416
sg11
F7.5746870040893555
sa(dp100
g3
F43.0000000000238
sg4
F0.04621100425720215
sg5
I43
sg6
g7
sg8
I9
sg9
I120
sg10
I416
sg11
F7.668298959732056
sa(dp101
g3
F39.00000000002299
sg4
F0.04447197914123535
sg5
I48
sg6
g7
sg8
I9
sg9
I120
sg10
I416
sg11
F8.736498832702637
sa(dp102
g3
F42.000000000002245
sg4
F0.0385899543762207
sg5
I42
sg6
g7
sg8
I9
sg9
I120
sg10
I416
sg11
F7.9975690841674805
sa(dp103
g3
F40.000000000009614
sg4
F0.04224205017089844
sg5
I43
sg6
g7
sg8
I9
sg9
I120
sg10
I416
sg11
F7.679776191711426
sa(dp104
g3
F46.000000000029274
sg4
F0.05243992805480957
sg5
I46
sg6
g7
sg8
I9
sg9
I120
sg10
I416
sg11
F7.922492027282715
sa(dp105
g3
F38.00000000004474
sg4
F0.03956294059753418
sg5
I38
sg6
g7
sg8
I9
sg9
I120
sg10
I416
sg11
F8.149368047714233
sa(dp106
g3
F32.00000000008115
sg4
F0.040016889572143555
sg5
I32
sg6
g7
sg8
I9
sg9
I120
sg10
I416
sg11
F7.839371919631958
sa(dp107
g3
F34.00000000001158
sg4
F0.0322418212890625
sg5
I34
sg6
g7
sg8
I9
sg9
I120
sg10
I416
sg11
F8.038604974746704
sa(dp108
g3
F40.00000000002651
sg4
F0.04750800132751465
sg5
I40
sg6
g7
sg8
I9
sg9
I120
sg10
I416
sg11
F7.579116106033325
sasI10
(lp109
(dp110
g3
F40.000000000000334
sg4
F0.04152488708496094
sg5
I40
sg6
g7
sg8
I10
sg9
I120
sg10
I416
sg11
F7.625811815261841
sa(dp111
g3
F39.00000000000361
sg4
F0.04096388816833496
sg5
I39
sg6
g7
sg8
I10
sg9
I120
sg10
I416
sg11
F8.181709051132202
sa(dp112
g3
F44.00000000007804
sg4
F0.054186105728149414
sg5
I49
sg6
g7
sg8
I10
sg9
I120
sg10
I416
sg11
F7.964123964309692
sa(dp113
g3
F43.000000000008576
sg4
F0.03271794319152832
sg5
I43
sg6
g7
sg8
I10
sg9
I120
sg10
I416
sg11
F7.948503017425537
sa(dp114
g3
F37.999999999999915
sg4
F0.033039093017578125
sg5
I38
sg6
g7
sg8
I10
sg9
I120
sg10
I416
sg11
F8.490023851394653
sa(dp115
g3
F42.000000000004235
sg4
F0.04132699966430664
sg5
I42
sg6
g7
sg8
I10
sg9
I120
sg10
I416
sg11
F8.579523086547852
sa(dp116
g3
F37.0
sg4
F0.033032894134521484
sg5
I37
sg6
g7
sg8
I10
sg9
I120
sg10
I416
sg11
F6.712164878845215
sa(dp117
g3
F36.00000000005228
sg4
F0.040422916412353516
sg5
I36
sg6
g7
sg8
I10
sg9
I120
sg10
I416
sg11
F8.028628826141357
sa(dp118
g3
F37.99999999999997
sg4
F0.03980708122253418
sg5
I38
sg6
g7
sg8
I10
sg9
I120
sg10
I416
sg11
F6.272592067718506
sa(dp119
g3
F37.99999999999978
sg4
F0.03301405906677246
sg5
I38
sg6
g7
sg8
I10
sg9
I120
sg10
I416
sg11
F7.375254154205322
sasI11
(lp120
(dp121
g3
F44.000000000020684
sg4
F0.04100608825683594
sg5
I44
sg6
g7
sg8
I11
sg9
I120
sg10
I416
sg11
F8.175312042236328
sa(dp122
g3
F43.00000000002183
sg4
F0.041563987731933594
sg5
I43
sg6
g7
sg8
I11
sg9
I120
sg10
I416
sg11
F7.766097068786621
sa(dp123
g3
F53.999999999999964
sg4
F0.03584480285644531
sg5
I54
sg6
g7
sg8
I11
sg9
I120
sg10
I416
sg11
F6.814449071884155
sa(dp124
g3
F41.000000000027875
sg4
F0.04140496253967285
sg5
I41
sg6
g7
sg8
I11
sg9
I120
sg10
I416
sg11
F8.085951089859009
sa(dp125
g3
F36.000000000079304
sg4
F0.034346818923950195
sg5
I36
sg6
g7
sg8
I11
sg9
I120
sg10
I416
sg11
F8.38171100616455
sa(dp126
g3
F38.000000000060105
sg4
F0.0495600700378418
sg5
I38
sg6
g7
sg8
I11
sg9
I120
sg10
I416
sg11
F8.54209017753601
sa(dp127
g3
F42.00000000001414
sg4
F0.034597158432006836
sg5
I42
sg6
g7
sg8
I11
sg9
I120
sg10
I416
sg11
F7.8798370361328125
sa(dp128
g3
F41.999999999999986
sg4
F0.04124808311462402
sg5
I42
sg6
g7
sg8
I11
sg9
I120
sg10
I416
sg11
F7.900195837020874
sa(dp129
g3
F50.00000000000447
sg4
F0.03415799140930176
sg5
I50
sg6
g7
sg8
I11
sg9
I120
sg10
I416
sg11
F8.04529595375061
sa(dp130
g3
F38.00000000002777
sg4
F0.03426313400268555
sg5
I38
sg6
g7
sg8
I11
sg9
I120
sg10
I416
sg11
F7.850114822387695
sasI12
(lp131
(dp132
g3
F45.0000000000001
sg4
F0.04927802085876465
sg5
I55
sg6
g7
sg8
I12
sg9
I120
sg10
I416
sg11
F7.978660821914673
sa(dp133
g3
F52.999999999999986
sg4
F0.05653214454650879
sg5
I57
sg6
g7
sg8
I12
sg9
I120
sg10
I416
sg11
F7.466264009475708
sa(dp134
g3
F43.000000000018375
sg4
F0.06976699829101562
sg5
I81
sg6
g7
sg8
I12
sg9
I120
sg10
I416
sg11
F7.789312124252319
sa(dp135
g3
F40.00000000004998
sg4
F0.05188107490539551
sg5
I44
sg6
g7
sg8
I12
sg9
I120
sg10
I416
sg11
F8.313853979110718
sa(dp136
g3
F44.0000000000095
sg4
F0.03527092933654785
sg5
I44
sg6
g7
sg8
I12
sg9
I120
sg10
I416
sg11
F8.386303901672363
sa(dp137
g3
F45.50000000004146
sg4
F0.05689501762390137
sg5
I66
sg6
g7
sg8
I12
sg9
I120
sg10
I416
sg11
F8.05802607536316
sa(dp138
g3
F37.00000000000693
sg4
F0.042320966720581055
sg5
I37
sg6
g7
sg8
I12
sg9
I120
sg10
I416
sg11
F7.441622018814087
sa(dp139
g3
F46.00000000000203
sg4
F0.0577239990234375
sg5
I46
sg6
g7
sg8
I12
sg9
I120
sg10
I416
sg11
F8.16255807876587
sa(dp140
g3
F38.00000000000002
sg4
F0.03529715538024902
sg5
I38
sg6
g7
sg8
I12
sg9
I120
sg10
I416
sg11
F5.593868017196655
sa(dp141
g3
F46.0
sg4
F0.04288196563720703
sg5
I46
sg6
g7
sg8
I12
sg9
I120
sg10
I416
sg11
F8.179940938949585
sasI13
(lp142
(dp143
g3
F41.000000000018
sg4
F0.03670001029968262
sg5
I41
sg6
g7
sg8
I13
sg9
I120
sg10
I416
sg11
F8.094913959503174
sa(dp144
g3
F44.000000000009415
sg4
F0.05824899673461914
sg5
I67
sg6
g7
sg8
I13
sg9
I120
sg10
I416
sg11
F7.932312965393066
sa(dp145
g3
F49.0000000000038
sg4
F0.03839683532714844
sg5
I49
sg6
g7
sg8
I13
sg9
I120
sg10
I416
sg11
F7.379328012466431
sa(dp146
g3
F53.00000000000255
sg4
F0.058615922927856445
sg5
I60
sg6
g7
sg8
I13
sg9
I120
sg10
I416
sg11
F8.036036968231201
sa(dp147
g3
F44.00000000000592
sg4
F0.0446321964263916
sg5
I60
sg6
g7
sg8
I13
sg9
I120
sg10
I416
sg11
F8.004886150360107
sa(dp148
g3
F46.00000000001072
sg4
F0.04384493827819824
sg5
I46
sg6
g7
sg8
I13
sg9
I120
sg10
I416
sg11
F8.139652967453003
sa(dp149
g3
F43.00000000000453
sg4
F0.03646588325500488
sg5
I43
sg6
g7
sg8
I13
sg9
I120
sg10
I416
sg11
F7.616531848907471
sa(dp150
g3
F55.000000000000036
sg4
F0.04441714286804199
sg5
I55
sg6
g7
sg8
I13
sg9
I120
sg10
I416
sg11
F7.751672029495239
sa(dp151
g3
F47.50000000000079
sg4
F0.05683612823486328
sg5
I63
sg6
g7
sg8
I13
sg9
I120
sg10
I416
sg11
F7.829051971435547
sa(dp152
g3
F33.00000000001444
sg4
F0.045352935791015625
sg5
I33
sg6
g7
sg8
I13
sg9
I120
sg10
I416
sg11
F7.98108696937561
sasI14
(lp153
(dp154
g3
F48.000000000019945
sg4
F0.04386305809020996
sg5
I57
sg6
g7
sg8
I14
sg9
I120
sg10
I416
sg11
F8.073206901550293
sa(dp155
g3
F55.00000000000149
sg4
F0.06884503364562988
sg5
I81
sg6
g7
sg8
I14
sg9
I120
sg10
I416
sg11
F7.231183052062988
sa(dp156
g3
F46.00000000004755
sg4
F0.05319499969482422
sg5
I46
sg6
g7
sg8
I14
sg9
I120
sg10
I416
sg11
F7.945888996124268
sa(dp157
g3
F46.000000000000185
sg4
F0.03787589073181152
sg5
I54
sg6
g7
sg8
I14
sg9
I120
sg10
I416
sg11
F8.167015075683594
sa(dp158
g3
F45.000000000010125
sg4
F0.03747701644897461
sg5
I45
sg6
g7
sg8
I14
sg9
I120
sg10
I416
sg11
F7.538635969161987
sa(dp159
g3
F46.00000000000318
sg4
F0.03763580322265625
sg5
I54
sg6
g7
sg8
I14
sg9
I120
sg10
I416
sg11
F7.896355152130127
sa(dp160
g3
F48.00000000000164
sg4
F0.04481005668640137
sg5
I52
sg6
g7
sg8
I14
sg9
I120
sg10
I416
sg11
F7.456485033035278
sa(dp161
g3
F42.00000000000006
sg4
F0.03753304481506348
sg5
I42
sg6
g7
sg8
I14
sg9
I120
sg10
I416
sg11
F7.776137828826904
sa(dp162
g3
F43.00000000000608
sg4
F0.054412126541137695
sg5
I50
sg6
g7
sg8
I14
sg9
I120
sg10
I416
sg11
F7.666971921920776
sa(dp163
g3
F44.50000000001721
sg4
F0.05747699737548828
sg5
I65
sg6
g7
sg8
I14
sg9
I120
sg10
I416
sg11
F8.20830488204956
sas.