(dp0
I160
(lp1
(dp2
S'obj_LP'
p3
F251.5
sS't_RG'
p4
F-0.4134988784790039
sS'obj_RG'
p5
I325
sS'type'
p6
S'grid'
p7
sS'k'
p8
I4
sS'n'
p9
I164
sS'm'
p10
I647
sS't_solve_LP'
p11
F-12.301420211791992
sa(dp12
g3
F234.5
sg4
F-0.4336259365081787
sg5
I309
sg6
g7
sg8
I4
sg9
I164
sg10
I638
sg11
F-12.87759280204773
sa(dp13
g3
F199.0
sg4
F-0.4544801712036133
sg5
I258
sg6
g7
sg8
I4
sg9
I164
sg10
I628
sg11
F-14.112716913223267
sa(dp14
g3
F212.99999999999997
sg4
F-0.46938085556030273
sg5
I275
sg6
g7
sg8
I4
sg9
I164
sg10
I631
sg11
F-13.035923957824707
sa(dp15
g3
F214.5
sg4
F-0.484356164932251
sg5
I258
sg6
g7
sg8
I4
sg9
I164
sg10
I631
sg11
F-14.281235933303833
sasI130
(lp16
(dp17
g3
F208.0
sg4
F-0.17555499076843262
sg5
I259
sg6
g7
sg8
I4
sg9
I134
sg10
I525
sg11
F-6.207367181777954
sa(dp18
g3
F178.0
sg4
F-0.18564796447753906
sg5
I231
sg6
g7
sg8
I4
sg9
I134
sg10
I517
sg11
F-7.520901918411255
sa(dp19
g3
F180.5
sg4
F-0.19342994689941406
sg5
I223
sg6
g7
sg8
I4
sg9
I134
sg10
I516
sg11
F-7.28811502456665
sa(dp20
g3
F184.5
sg4
F-0.21602702140808105
sg5
I235
sg6
g7
sg8
I4
sg9
I134
sg10
I514
sg11
F-7.119632005691528
sa(dp21
g3
F223.5
sg4
F-0.21881604194641113
sg5
I273
sg6
g7
sg8
I4
sg9
I134
sg10
I529
sg11
F-5.880766868591309
sasI100
(lp22
(dp23
g3
F134.0
sg4
F-0.027530908584594727
sg5
I178
sg6
g7
sg8
I4
sg9
I104
sg10
I387
sg11
F-3.122624158859253
sa(dp24
g3
F130.0
sg4
F-0.044487953186035156
sg5
I155
sg6
g7
sg8
I4
sg9
I104
sg10
I387
sg11
F-3.278640031814575
sa(dp25
g3
F121.5
sg4
F-0.04234790802001953
sg5
I155
sg6
g7
sg8
I4
sg9
I104
sg10
I384
sg11
F-3.155853033065796
sa(dp26
g3
F130.5
sg4
F-0.0473330020904541
sg5
I160
sg6
g7
sg8
I4
sg9
I104
sg10
I387
sg11
F-3.4701550006866455
sa(dp27
g3
F137.5
sg4
F-0.052847862243652344
sg5
I175
sg6
g7
sg8
I4
sg9
I104
sg10
I393
sg11
F-2.6846730709075928
sasI200
(lp28
(dp29
g3
F299.0
sg4
F-0.993380069732666
sg5
I364
sg6
g7
sg8
I4
sg9
I204
sg10
I818
sg11
F-27.36512804031372
sa(dp30
g3
F269.0
sg4
F-1.0621740818023682
sg5
I334
sg6
g7
sg8
I4
sg9
I204
sg10
I798
sg11
F-32.346123933792114
sa(dp31
g3
F246.0
sg4
F-1.0105390548706055
sg5
I331
sg6
g7
sg8
I4
sg9
I204
sg10
I792
sg11
F-29.853764057159424
sa(dp32
g3
F285.5
sg4
F-1.0237281322479248
sg5
I385
sg6
g7
sg8
I4
sg9
I204
sg10
I806
sg11
F-27.61421489715576
sa(dp33
g3
F282.99999999999994
sg4
F-1.039405107498169
sg5
I379
sg6
g7
sg8
I4
sg9
I204
sg10
I803
sg11
F-28.796519994735718
sasI170
(lp34
(dp35
g3
F223.9999999999998
sg4
F-0.5472290515899658
sg5
I317
sg6
g7
sg8
I4
sg9
I174
sg10
I672
sg11
F-16.228442907333374
sa(dp36
g3
F220.0
sg4
F-0.5459721088409424
sg5
I291
sg6
g7
sg8
I4
sg9
I174
sg10
I669
sg11
F-16.901463985443115
sa(dp37
g3
F235.5
sg4
F-0.5769748687744141
sg5
I297
sg6
g7
sg8
I4
sg9
I174
sg10
I681
sg11
F-17.38623809814453
sa(dp38
g3
F228.0
sg4
F-0.5921409130096436
sg5
I276
sg6
g7
sg8
I4
sg9
I174
sg10
I679
sg11
F-17.981520891189575
sa(dp39
g3
F261.0
sg4
F-0.5713541507720947
sg5
I339
sg6
g7
sg8
I4
sg9
I174
sg10
I683
sg11
F-15.621471166610718
sasI140
(lp40
(dp41
g3
F199.5
sg4
F-0.251356840133667
sg5
I248
sg6
g7
sg8
I4
sg9
I144
sg10
I558
sg11
F-8.917206048965454
sa(dp42
g3
F211.99999999999991
sg4
F-0.2605891227722168
sg5
I292
sg6
g7
sg8
I4
sg9
I144
sg10
I559
sg11
F-7.6458940505981445
sa(dp43
g3
F206.0
sg4
F-0.28505611419677734
sg5
I245
sg6
g7
sg8
I4
sg9
I144
sg10
I558
sg11
F-9.175616025924683
sa(dp44
g3
F159.5
sg4
F-0.28897786140441895
sg5
I225
sg6
g7
sg8
I4
sg9
I144
sg10
I544
sg11
F-10.325387001037598
sa(dp45
g3
F206.5
sg4
F-0.2902839183807373
sg5
I254
sg6
g7
sg8
I4
sg9
I144
sg10
I558
sg11
F-9.095583200454712
sasI110
(lp46
(dp47
g3
F173.0
sg4
F-0.06676602363586426
sg5
I219
sg6
g7
sg8
I4
sg9
I114
sg10
I436
sg11
F-4.419692039489746
sa(dp48
g3
F143.0
sg4
F-0.07636499404907227
sg5
I196
sg6
g7
sg8
I4
sg9
I114
sg10
I426
sg11
F-3.436598062515259
sa(dp49
g3
F136.0
sg4
F-0.08520197868347168
sg5
I195
sg6
g7
sg8
I4
sg9
I114
sg10
I422
sg11
F-4.68366003036499
sa(dp50
g3
F132.50000000000003
sg4
F-0.10124707221984863
sg5
I175
sg6
g7
sg8
I4
sg9
I114
sg10
I428
sg11
F-4.698724985122681
sa(dp51
g3
F170.0
sg4
F-0.10300111770629883
sg5
I206
sg6
g7
sg8
I4
sg9
I114
sg10
I432
sg11
F-3.62042498588562
sasI180
(lp52
(dp53
g3
F222.5
sg4
F-0.6936759948730469
sg5
I269
sg6
g7
sg8
I4
sg9
I184
sg10
I712
sg11
F-22.258652210235596
sa(dp54
g3
F250.0
sg4
F-0.6857559680938721
sg5
I287
sg6
g7
sg8
I4
sg9
I184
sg10
I718
sg11
F-18.70055890083313
sa(dp55
g3
F252.0
sg4
F-0.7170178890228271
sg5
I312
sg6
g7
sg8
I4
sg9
I184
sg10
I721
sg11
F-19.694391012191772
sa(dp56
g3
F249.0
sg4
F-0.6982440948486328
sg5
I333
sg6
g7
sg8
I4
sg9
I184
sg10
I721
sg11
F-20.104963064193726
sa(dp57
g3
F227.5
sg4
F-0.7274670600891113
sg5
I303
sg6
g7
sg8
I4
sg9
I184
sg10
I712
sg11
F-21.30710506439209
sasI150
(lp58
(dp59
g3
F235.5
sg4
F-0.3388068675994873
sg5
I285
sg6
g7
sg8
I4
sg9
I154
sg10
I607
sg11
F-10.782565116882324
sa(dp60
g3
F183.0
sg4
F-0.34379005432128906
sg5
I235
sg6
g7
sg8
I4
sg9
I154
sg10
I587
sg11
F-12.378473043441772
sa(dp61
g3
F223.0
sg4
F-0.3556649684906006
sg5
I281
sg6
g7
sg8
I4
sg9
I154
sg10
I599
sg11
F-10.677551984786987
sa(dp62
g3
F217.0
sg4
F-0.3633699417114258
sg5
I286
sg6
g7
sg8
I4
sg9
I154
sg10
I599
sg11
F-10.9167799949646
sa(dp63
g3
F213.5
sg4
F-0.38961100578308105
sg5
I264
sg6
g7
sg8
I4
sg9
I154
sg10
I604
sg11
F-11.351839065551758
sasI120
(lp64
(dp65
g3
F160.5
sg4
F-0.11808300018310547
sg5
I196
sg6
g7
sg8
I4
sg9
I124
sg10
I467
sg11
F-6.234262943267822
sa(dp66
g3
F157.50000000000003
sg4
F-0.13077521324157715
sg5
I196
sg6
g7
sg8
I4
sg9
I124
sg10
I474
sg11
F-6.369120836257935
sa(dp67
g3
F170.5
sg4
F-0.14115405082702637
sg5
I228
sg6
g7
sg8
I4
sg9
I124
sg10
I473
sg11
F-6.157732009887695
sa(dp68
g3
F161.5
sg4
F-0.14152908325195312
sg5
I206
sg6
g7
sg8
I4
sg9
I124
sg10
I469
sg11
F-5.878454923629761
sa(dp69
g3
F182.0
sg4
F-0.15436792373657227
sg5
I223
sg6
g7
sg8
I4
sg9
I124
sg10
I477
sg11
F-5.70658802986145
sasI190
(lp70
(dp71
g3
F261.0
sg4
F-0.8013310432434082
sg5
I321
sg6
g7
sg8
I4
sg9
I194
sg10
I756
sg11
F-25.64502191543579
sa(dp72
g3
F259.0
sg4
F-0.8245840072631836
sg5
I322
sg6
g7
sg8
I4
sg9
I194
sg10
I760
sg11
F-24.960587978363037
sa(dp73
g3
F250.5
sg4
F-0.8730278015136719
sg5
I321
sg6
g7
sg8
I4
sg9
I194
sg10
I756
sg11
F-26.235822916030884
sa(dp74
g3
F272.0
sg4
F-0.8558681011199951
sg5
I330
sg6
g7
sg8
I4
sg9
I194
sg10
I763
sg11
F-26.186973094940186
sa(dp75
g3
F286.0
sg4
F-0.8545799255371094
sg5
I362
sg6
g7
sg8
I4
sg9
I194
sg10
I770
sg11
F-23.870386123657227
sas.