(dp0
I1
(lp1
(dp2
S'obj_LP'
p3
F5.0
sS't_RG'
p4
F0.013226032257080078
sS'obj_RG'
p5
I5
sS'type'
p6
S'grid'
p7
sS'k'
p8
I1
sS'n'
p9
I120
sS'm'
p10
I416
sS't_solve_LP'
p11
F2.350271224975586
sa(dp12
g3
F5.0
sg4
F0.013634920120239258
sg5
I5
sg6
g7
sg8
I1
sg9
I120
sg10
I416
sg11
F2.367302179336548
sa(dp13
g3
F5.0
sg4
F0.013372182846069336
sg5
I5
sg6
g7
sg8
I1
sg9
I120
sg10
I416
sg11
F2.324512004852295
sa(dp14
g3
F5.0
sg4
F0.013486862182617188
sg5
I5
sg6
g7
sg8
I1
sg9
I120
sg10
I416
sg11
F2.2039568424224854
sa(dp15
g3
F8.0
sg4
F0.013375043869018555
sg5
I8
sg6
g7
sg8
I1
sg9
I120
sg10
I416
sg11
F3.2315430641174316
sasI2
(lp16
(dp17
g3
F13.0
sg4
F0.01517796516418457
sg5
I13
sg6
g7
sg8
I2
sg9
I120
sg10
I416
sg11
F2.9653680324554443
sa(dp18
g3
F13.0
sg4
F0.01477503776550293
sg5
I13
sg6
g7
sg8
I2
sg9
I120
sg10
I416
sg11
F4.2724220752716064
sa(dp19
g3
F8.0
sg4
F0.0149688720703125
sg5
I8
sg6
g7
sg8
I2
sg9
I120
sg10
I416
sg11
F2.3622710704803467
sa(dp20
g3
F13.0
sg4
F0.022781848907470703
sg5
I13
sg6
g7
sg8
I2
sg9
I120
sg10
I416
sg11
F3.92096209526062
sa(dp21
g3
F13.0
sg4
F0.015008926391601562
sg5
I13
sg6
g7
sg8
I2
sg9
I120
sg10
I416
sg11
F2.3661930561065674
sasI3
(lp22
(dp23
g3
F22.00000000001445
sg4
F0.03157305717468262
sg5
I23
sg6
g7
sg8
I3
sg9
I120
sg10
I416
sg11
F7.872955083847046
sa(dp24
g3
F13.0
sg4
F0.02365899085998535
sg5
I13
sg6
g7
sg8
I3
sg9
I120
sg10
I416
sg11
F2.626378059387207
sa(dp25
g3
F18.0
sg4
F0.023971080780029297
sg5
I18
sg6
g7
sg8
I3
sg9
I120
sg10
I416
sg11
F3.468095064163208
sa(dp26
g3
F21.0
sg4
F0.024419784545898438
sg5
I21
sg6
g7
sg8
I3
sg9
I120
sg10
I416
sg11
F6.114920139312744
sa(dp27
g3
F21.0
sg4
F0.024394989013671875
sg5
I21
sg6
g7
sg8
I3
sg9
I120
sg10
I416
sg11
F3.067628860473633
sasI4
(lp28
(dp29
g3
F24.0
sg4
F0.03241086006164551
sg5
I24
sg6
g7
sg8
I4
sg9
I120
sg10
I416
sg11
F7.441972017288208
sa(dp30
g3
F23.000000000000785
sg4
F0.03309297561645508
sg5
I24
sg6
g7
sg8
I4
sg9
I120
sg10
I416
sg11
F7.425747871398926
sa(dp31
g3
F17.999999999999996
sg4
F0.03335309028625488
sg5
I18
sg6
g7
sg8
I4
sg9
I120
sg10
I416
sg11
F4.680120944976807
sa(dp32
g3
F26.00000000000143
sg4
F0.04061102867126465
sg5
I26
sg6
g7
sg8
I4
sg9
I120
sg10
I416
sg11
F8.153855085372925
sa(dp33
g3
F18.0
sg4
F0.025690078735351562
sg5
I18
sg6
g7
sg8
I4
sg9
I120
sg10
I416
sg11
F3.8319849967956543
sasI5
(lp34
(dp35
g3
F22.0
sg4
F0.027044057846069336
sg5
I22
sg6
g7
sg8
I5
sg9
I120
sg10
I416
sg11
F5.3565309047698975
sa(dp36
g3
F24.000000000000075
sg4
F0.03391909599304199
sg5
I27
sg6
g7
sg8
I5
sg9
I120
sg10
I416
sg11
F6.991972923278809
sa(dp37
g3
F24.0
sg4
F0.02697896957397461
sg5
I24
sg6
g7
sg8
I5
sg9
I120
sg10
I416
sg11
F7.379714012145996
sa(dp38
g3
F31.999999999999257
sg4
F0.03427314758300781
sg5
I32
sg6
g7
sg8
I5
sg9
I120
sg10
I416
sg11
F7.214943170547485
sa(dp39
g3
F30.000000000000046
sg4
F0.02754688262939453
sg5
I30
sg6
g7
sg8
I5
sg9
I120
sg10
I416
sg11
F7.668026924133301
sasI6
(lp40
(dp41
g3
F33.00000000000009
sg4
F0.03483104705810547
sg5
I33
sg6
g7
sg8
I6
sg9
I120
sg10
I416
sg11
F7.632596015930176
sa(dp42
g3
F33.999999999989164
sg4
F0.05658292770385742
sg5
I47
sg6
g7
sg8
I6
sg9
I120
sg10
I416
sg11
F8.048906087875366
sa(dp43
g3
F21.0
sg4
F0.02873086929321289
sg5
I21
sg6
g7
sg8
I6
sg9
I120
sg10
I416
sg11
F5.12700891494751
sa(dp44
g3
F30.999999999999936
sg4
F0.028168916702270508
sg5
I31
sg6
g7
sg8
I6
sg9
I120
sg10
I416
sg11
F8.259868860244751
sa(dp45
g3
F23.999999999999932
sg4
F0.034932851791381836
sg5
I24
sg6
g7
sg8
I6
sg9
I120
sg10
I416
sg11
F5.680482864379883
sasI7
(lp46
(dp47
g3
F29.0
sg4
F0.03629493713378906
sg5
I29
sg6
g7
sg8
I7
sg9
I120
sg10
I416
sg11
F6.210555791854858
sa(dp48
g3
F32.99999999999859
sg4
F0.05865001678466797
sg5
I51
sg6
g7
sg8
I7
sg9
I120
sg10
I416
sg11
F7.970786094665527
sa(dp49
g3
F29.000000000000068
sg4
F0.06474900245666504
sg5
I49
sg6
g7
sg8
I7
sg9
I120
sg10
I416
sg11
F8.353686094284058
sa(dp50
g3
F30.999999999999552
sg4
F0.06515789031982422
sg5
I48
sg6
g7
sg8
I7
sg9
I120
sg10
I416
sg11
F7.644390106201172
sa(dp51
g3
F35.00000000000007
sg4
F0.03083014488220215
sg5
I35
sg6
g7
sg8
I7
sg9
I120
sg10
I416
sg11
F7.795516014099121
sasI8
(lp52
(dp53
g3
F34.00000000000004
sg4
F0.03662705421447754
sg5
I34
sg6
g7
sg8
I8
sg9
I120
sg10
I416
sg11
F8.416172981262207
sa(dp54
g3
F32.0
sg4
F0.038949012756347656
sg5
I32
sg6
g7
sg8
I8
sg9
I120
sg10
I416
sg11
F6.226891040802002
sa(dp55
g3
F39.99999999999989
sg4
F0.037834882736206055
sg5
I40
sg6
g7
sg8
I8
sg9
I120
sg10
I416
sg11
F8.604519844055176
sa(dp56
g3
F28.000000000001098
sg4
F0.044921159744262695
sg5
I34
sg6
g7
sg8
I8
sg9
I120
sg10
I416
sg11
F7.4222118854522705
sa(dp57
g3
F39.99999999999868
sg4
F0.0592348575592041
sg5
I55
sg6
g7
sg8
I8
sg9
I120
sg10
I416
sg11
F7.426387071609497
sasI9
(lp58
(dp59
g3
F35.00000000000083
sg4
F0.06015181541442871
sg5
I43
sg6
g7
sg8
I9
sg9
I120
sg10
I416
sg11
F7.605407953262329
sa(dp60
g3
F39.000000000000064
sg4
F0.08135819435119629
sg5
I54
sg6
g7
sg8
I9
sg9
I120
sg10
I416
sg11
F8.760684967041016
sa(dp61
g3
F32.00000000000005
sg4
F0.052937984466552734
sg5
I46
sg6
g7
sg8
I9
sg9
I120
sg10
I416
sg11
F7.405879974365234
sa(dp62
g3
F44.00000000000004
sg4
F0.03930997848510742
sg5
I44
sg6
g7
sg8
I9
sg9
I120
sg10
I416
sg11
F8.279321908950806
sa(dp63
g3
F32.999999999999595
sg4
F0.06827497482299805
sg5
I48
sg6
g7
sg8
I9
sg9
I120
sg10
I416
sg11
F8.35187315940857
sasI10
(lp64
(dp65
g3
F34.000000000007205
sg4
F0.08267617225646973
sg5
I55
sg6
g7
sg8
I10
sg9
I120
sg10
I416
sg11
F7.88335108757019
sa(dp66
g3
F45.00000000000068
sg4
F0.10370707511901855
sg5
I99
sg6
g7
sg8
I10
sg9
I120
sg10
I416
sg11
F7.97099494934082
sa(dp67
g3
F42.500000000000036
sg4
F0.047070980072021484
sg5
I51
sg6
g7
sg8
I10
sg9
I120
sg10
I416
sg11
F8.854166030883789
sa(dp68
g3
F48.00000000000001
sg4
F0.033351898193359375
sg5
I48
sg6
g7
sg8
I10
sg9
I120
sg10
I416
sg11
F7.852438926696777
sa(dp69
g3
F41.666666666667396
sg4
F0.06209683418273926
sg5
I47
sg6
g7
sg8
I10
sg9
I120
sg10
I416
sg11
F8.110059976577759
sas.