(dp0
I1
(lp1
(dp2
S'obj_LP'
p3
F8.0
sS't_RG'
p4
F0.013195037841796875
sS'obj_RG'
p5
I8
sS'type'
p6
S'grid'
p7
sS'k'
p8
I1
sS'n'
p9
I120
sS'm'
p10
I416
sS't_solve_LP'
p11
F2.344599962234497
sa(dp12
g3
F5.0
sg4
F0.013317108154296875
sg5
I5
sg6
g7
sg8
I1
sg9
I120
sg10
I416
sg11
F2.3342530727386475
sa(dp13
g3
F8.0
sg4
F0.013574838638305664
sg5
I8
sg6
g7
sg8
I1
sg9
I120
sg10
I416
sg11
F2.3857381343841553
sa(dp14
g3
F8.0
sg4
F0.013271093368530273
sg5
I8
sg6
g7
sg8
I1
sg9
I120
sg10
I416
sg11
F2.288050889968872
sa(dp15
g3
F5.0
sg4
F0.013655900955200195
sg5
I5
sg6
g7
sg8
I1
sg9
I120
sg10
I416
sg11
F2.32440185546875
sa(dp16
g3
F8.0
sg4
F0.013765096664428711
sg5
I8
sg6
g7
sg8
I1
sg9
I120
sg10
I416
sg11
F2.770724058151245
sa(dp17
g3
F5.0
sg4
F0.013634920120239258
sg5
I5
sg6
g7
sg8
I1
sg9
I120
sg10
I416
sg11
F2.1945509910583496
sa(dp18
g3
F5.0
sg4
F0.01371002197265625
sg5
I5
sg6
g7
sg8
I1
sg9
I120
sg10
I416
sg11
F2.3891441822052
sa(dp19
g3
F8.0
sg4
F0.013463973999023438
sg5
I8
sg6
g7
sg8
I1
sg9
I120
sg10
I416
sg11
F2.3890700340270996
sa(dp20
g3
F8.0
sg4
F0.01374197006225586
sg5
I8
sg6
g7
sg8
I1
sg9
I120
sg10
I416
sg11
F2.3282220363616943
sasI2
(lp21
(dp22
g3
F16.0
sg4
F0.022554874420166016
sg5
I16
sg6
g7
sg8
I2
sg9
I120
sg10
I416
sg11
F2.341398000717163
sa(dp23
g3
F10.0
sg4
F0.014878034591674805
sg5
I10
sg6
g7
sg8
I2
sg9
I120
sg10
I416
sg11
F2.3629491329193115
sa(dp24
g3
F8.0
sg4
F0.014648914337158203
sg5
I8
sg6
g7
sg8
I2
sg9
I120
sg10
I416
sg11
F2.4048821926116943
sa(dp25
g3
F13.0
sg4
F0.022955894470214844
sg5
I13
sg6
g7
sg8
I2
sg9
I120
sg10
I416
sg11
F3.6168198585510254
sa(dp26
g3
F13.0
sg4
F0.02320408821105957
sg5
I13
sg6
g7
sg8
I2
sg9
I120
sg10
I416
sg11
F3.7305920124053955
sa(dp27
g3
F10.0
sg4
F0.014837980270385742
sg5
I10
sg6
g7
sg8
I2
sg9
I120
sg10
I416
sg11
F2.6177780628204346
sa(dp28
g3
F8.0
sg4
F0.01479792594909668
sg5
I8
sg6
g7
sg8
I2
sg9
I120
sg10
I416
sg11
F2.3493640422821045
sa(dp29
g3
F13.0
sg4
F0.015201091766357422
sg5
I13
sg6
g7
sg8
I2
sg9
I120
sg10
I416
sg11
F5.930652856826782
sa(dp30
g3
F13.0
sg4
F0.022626876831054688
sg5
I13
sg6
g7
sg8
I2
sg9
I120
sg10
I416
sg11
F5.143031120300293
sa(dp31
g3
F11.0
sg4
F0.022203922271728516
sg5
I11
sg6
g7
sg8
I2
sg9
I120
sg10
I416
sg11
F2.964587926864624
sasI3
(lp32
(dp33
g3
F18.0
sg4
F0.024644851684570312
sg5
I18
sg6
g7
sg8
I3
sg9
I120
sg10
I416
sg11
F5.215350151062012
sa(dp34
g3
F16.0
sg4
F0.02449178695678711
sg5
I16
sg6
g7
sg8
I3
sg9
I120
sg10
I416
sg11
F2.404546022415161
sa(dp35
g3
F16.000000000000423
sg4
F0.03139209747314453
sg5
I18
sg6
g7
sg8
I3
sg9
I120
sg10
I416
sg11
F6.96503210067749
sa(dp36
g3
F19.0
sg4
F0.024110078811645508
sg5
I19
sg6
g7
sg8
I3
sg9
I120
sg10
I416
sg11
F5.707269191741943
sa(dp37
g3
F18.0
sg4
F0.025600910186767578
sg5
I18
sg6
g7
sg8
I3
sg9
I120
sg10
I416
sg11
F3.782435894012451
sa(dp38
g3
F18.0
sg4
F0.03200101852416992
sg5
I18
sg6
g7
sg8
I3
sg9
I120
sg10
I416
sg11
F4.828150987625122
sa(dp39
g3
F21.999999999999996
sg4
F0.02371501922607422
sg5
I22
sg6
g7
sg8
I3
sg9
I120
sg10
I416
sg11
F6.070379018783569
sa(dp40
g3
F18.00000000000002
sg4
F0.024454832077026367
sg5
I18
sg6
g7
sg8
I3
sg9
I120
sg10
I416
sg11
F5.669790983200073
sa(dp41
g3
F11.0
sg4
F0.024480104446411133
sg5
I11
sg6
g7
sg8
I3
sg9
I120
sg10
I416
sg11
F2.357131004333496
sa(dp42
g3
F17.0
sg4
F0.024677038192749023
sg5
I17
sg6
g7
sg8
I3
sg9
I120
sg10
I416
sg11
F4.6637561321258545
sasI4
(lp43
(dp44
g3
F24.000000000000043
sg4
F0.026662826538085938
sg5
I24
sg6
g7
sg8
I4
sg9
I120
sg10
I416
sg11
F6.124451160430908
sa(dp45
g3
F24.000000000000014
sg4
F0.024870872497558594
sg5
I24
sg6
g7
sg8
I4
sg9
I120
sg10
I416
sg11
F5.96235203742981
sa(dp46
g3
F20.0
sg4
F0.025615930557250977
sg5
I20
sg6
g7
sg8
I4
sg9
I120
sg10
I416
sg11
F3.6588501930236816
sa(dp47
g3
F25.99999999999961
sg4
F0.04017806053161621
sg5
I31
sg6
g7
sg8
I4
sg9
I120
sg10
I416
sg11
F7.761938810348511
sa(dp48
g3
F22.99999999999996
sg4
F0.02523493766784668
sg5
I23
sg6
g7
sg8
I4
sg9
I120
sg10
I416
sg11
F5.237607002258301
sa(dp49
g3
F18.0
sg4
F0.02544999122619629
sg5
I18
sg6
g7
sg8
I4
sg9
I120
sg10
I416
sg11
F2.5759270191192627
sa(dp50
g3
F26.0
sg4
F0.03369283676147461
sg5
I26
sg6
g7
sg8
I4
sg9
I120
sg10
I416
sg11
F2.3896310329437256
sa(dp51
g3
F26.0
sg4
F0.025567054748535156
sg5
I26
sg6
g7
sg8
I4
sg9
I120
sg10
I416
sg11
F4.708359003067017
sa(dp52
g3
F20.0
sg4
F0.025552034378051758
sg5
I20
sg6
g7
sg8
I4
sg9
I120
sg10
I416
sg11
F5.699027061462402
sa(dp53
g3
F25.999999999999993
sg4
F0.040280818939208984
sg5
I26
sg6
g7
sg8
I4
sg9
I120
sg10
I416
sg11
F6.215590953826904
sasI5
(lp54
(dp55
g3
F26.0
sg4
F0.02705097198486328
sg5
I26
sg6
g7
sg8
I5
sg9
I120
sg10
I416
sg11
F6.685158014297485
sa(dp56
g3
F27.999999999999897
sg4
F0.04844212532043457
sg5
I33
sg6
g7
sg8
I5
sg9
I120
sg10
I416
sg11
F8.295884132385254
sa(dp57
g3
F27.000000000000778
sg4
F0.0526280403137207
sg5
I40
sg6
g7
sg8
I5
sg9
I120
sg10
I416
sg11
F6.04305100440979
sa(dp58
g3
F22.99999999999999
sg4
F0.02699899673461914
sg5
I23
sg6
g7
sg8
I5
sg9
I120
sg10
I416
sg11
F3.1973729133605957
sa(dp59
g3
F27.0
sg4
F0.028671979904174805
sg5
I27
sg6
g7
sg8
I5
sg9
I120
sg10
I416
sg11
F8.408035039901733
sa(dp60
g3
F34.00000000000008
sg4
F0.02680492401123047
sg5
I34
sg6
g7
sg8
I5
sg9
I120
sg10
I416
sg11
F8.41892385482788
sa(dp61
g3
F27.99999999999633
sg4
F0.04142594337463379
sg5
I29
sg6
g7
sg8
I5
sg9
I120
sg10
I416
sg11
F8.011824131011963
sa(dp62
g3
F30.999999999999996
sg4
F0.027041912078857422
sg5
I31
sg6
g7
sg8
I5
sg9
I120
sg10
I416
sg11
F7.396451950073242
sa(dp63
g3
F27.000000000034504
sg4
F0.048332929611206055
sg5
I37
sg6
g7
sg8
I5
sg9
I120
sg10
I416
sg11
F7.945272207260132
sa(dp64
g3
F31.00000000000673
sg4
F0.04865384101867676
sg5
I34
sg6
g7
sg8
I5
sg9
I120
sg10
I416
sg11
F7.793367147445679
sasI6
(lp65
(dp66
g3
F27.999999999999737
sg4
F0.0509641170501709
sg5
I46
sg6
g7
sg8
I6
sg9
I120
sg10
I416
sg11
F7.830355882644653
sa(dp67
g3
F27.999999999999957
sg4
F0.03576397895812988
sg5
I28
sg6
g7
sg8
I6
sg9
I120
sg10
I416
sg11
F7.647469997406006
sa(dp68
g3
F35.00000000000071
sg4
F0.057116031646728516
sg5
I34
sg6
g7
sg8
I6
sg9
I120
sg10
I416
sg11
F8.444375038146973
sa(dp69
g3
F24.000000000001794
sg4
F0.05695295333862305
sg5
I45
sg6
g7
sg8
I6
sg9
I120
sg10
I416
sg11
F7.271652936935425
sa(dp70
g3
F28.000000000000576
sg4
F0.05649995803833008
sg5
I43
sg6
g7
sg8
I6
sg9
I120
sg10
I416
sg11
F8.347064971923828
sa(dp71
g3
F30.999999999998508
sg4
F0.059777021408081055
sg5
I41
sg6
g7
sg8
I6
sg9
I120
sg10
I416
sg11
F8.093878030776978
sa(dp72
g3
F36.00000000001121
sg4
F0.058763980865478516
sg5
I35
sg6
g7
sg8
I6
sg9
I120
sg10
I416
sg11
F7.6746721267700195
sa(dp73
g3
F26.000000000001684
sg4
F0.062052011489868164
sg5
I42
sg6
g7
sg8
I6
sg9
I120
sg10
I416
sg11
F7.571071147918701
sa(dp74
g3
F27.000000000000288
sg4
F0.06112504005432129
sg5
I40
sg6
g7
sg8
I6
sg9
I120
sg10
I416
sg11
F6.332018136978149
sa(dp75
g3
F32.00000000000017
sg4
F0.06091904640197754
sg5
I42
sg6
g7
sg8
I6
sg9
I120
sg10
I416
sg11
F7.95213508605957
sasI7
(lp76
(dp77
g3
F34.000000000000014
sg4
F0.03705310821533203
sg5
I34
sg6
g7
sg8
I7
sg9
I120
sg10
I416
sg11
F7.218225002288818
sa(dp78
g3
F28.99999999999999
sg4
F0.029278993606567383
sg5
I29
sg6
g7
sg8
I7
sg9
I120
sg10
I416
sg11
F6.222388029098511
sa(dp79
g3
F31.0
sg4
F0.03684711456298828
sg5
I31
sg6
g7
sg8
I7
sg9
I120
sg10
I416
sg11
F7.981768846511841
sa(dp80
g3
F32.0
sg4
F0.02923417091369629
sg5
I32
sg6
g7
sg8
I7
sg9
I120
sg10
I416
sg11
F6.152398109436035
sa(dp81
g3
F35.00000000000001
sg4
F0.02950286865234375
sg5
I35
sg6
g7
sg8
I7
sg9
I120
sg10
I416
sg11
F6.041399002075195
sa(dp82
g3
F34.00000000000413
sg4
F0.06533098220825195
sg5
I47
sg6
g7
sg8
I7
sg9
I120
sg10
I416
sg11
F8.04235315322876
sa(dp83
g3
F29.000000000000075
sg4
F0.029479026794433594
sg5
I29
sg6
g7
sg8
I7
sg9
I120
sg10
I416
sg11
F5.728902101516724
sa(dp84
g3
F30.999999999996287
sg4
F0.06392407417297363
sg5
I50
sg6
g7
sg8
I7
sg9
I120
sg10
I416
sg11
F8.509712934494019
sa(dp85
g3
F36.9999999999916
sg4
F0.05758380889892578
sg5
I44
sg6
g7
sg8
I7
sg9
I120
sg10
I416
sg11
F7.907492160797119
sa(dp86
g3
F28.000000000000014
sg4
F0.02952718734741211
sg5
I28
sg6
g7
sg8
I7
sg9
I120
sg10
I416
sg11
F5.291143894195557
sasI8
(lp87
(dp88
g3
F38.0
sg4
F0.030632972717285156
sg5
I38
sg6
g7
sg8
I8
sg9
I120
sg10
I416
sg11
F5.01157021522522
sa(dp89
g3
F34.00000000000923
sg4
F0.07358598709106445
sg5
I48
sg6
g7
sg8
I8
sg9
I120
sg10
I416
sg11
F8.026365995407104
sa(dp90
g3
F37.999999999996646
sg4
F0.07330989837646484
sg5
I52
sg6
g7
sg8
I8
sg9
I120
sg10
I416
sg11
F8.411525011062622
sa(dp91
g3
F38.000000000000206
sg4
F0.04436087608337402
sg5
I38
sg6
g7
sg8
I8
sg9
I120
sg10
I416
sg11
F7.220144987106323
sa(dp92
g3
F43.000000000000504
sg4
F0.06607890129089355
sg5
I63
sg6
g7
sg8
I8
sg9
I120
sg10
I416
sg11
F8.168716192245483
sa(dp93
g3
F39.00000000000002
sg4
F0.04540395736694336
sg5
I43
sg6
g7
sg8
I8
sg9
I120
sg10
I416
sg11
F7.641763925552368
sa(dp94
g3
F35.99999999999998
sg4
F0.03790616989135742
sg5
I36
sg6
g7
sg8
I8
sg9
I120
sg10
I416
sg11
F9.054850816726685
sa(dp95
g3
F37.0
sg4
F0.038333892822265625
sg5
I37
sg6
g7
sg8
I8
sg9
I120
sg10
I416
sg11
F8.793986082077026
sa(dp96
g3
F37.999999999997975
sg4
F0.0659639835357666
sg5
I47
sg6
g7
sg8
I8
sg9
I120
sg10
I416
sg11
F8.875823020935059
sa(dp97
g3
F37.99999999999975
sg4
F0.06554484367370605
sg5
I52
sg6
g7
sg8
I8
sg9
I120
sg10
I416
sg11
F8.109019041061401
sasI9
(lp98
(dp99
g3
F39.000000000002984
sg4
F0.06114506721496582
sg5
I45
sg6
g7
sg8
I9
sg9
I120
sg10
I416
sg11
F8.17974305152893
sa(dp100
g3
F32.99999999999971
sg4
F0.07910704612731934
sg5
I62
sg6
g7
sg8
I9
sg9
I120
sg10
I416
sg11
F7.41726279258728
sa(dp101
g3
F33.00000000000016
sg4
F0.07996606826782227
sg5
I61
sg6
g7
sg8
I9
sg9
I120
sg10
I416
sg11
F7.7790539264678955
sa(dp102
g3
F37.99999999999183
sg4
F0.07457900047302246
sg5
I53
sg6
g7
sg8
I9
sg9
I120
sg10
I416
sg11
F8.024158000946045
sa(dp103
g3
F31.99999999999863
sg4
F0.07883596420288086
sg5
I68
sg6
g7
sg8
I9
sg9
I120
sg10
I416
sg11
F7.7499840259552
sa(dp104
g3
F37.99999999999933
sg4
F0.07295584678649902
sg5
I58
sg6
g7
sg8
I9
sg9
I120
sg10
I416
sg11
F8.176140069961548
sa(dp105
g3
F32.9999999999999
sg4
F0.03289794921875
sg5
I33
sg6
g7
sg8
I9
sg9
I120
sg10
I416
sg11
F8.391972780227661
sa(dp106
g3
F35.999999999998394
sg4
F0.08629584312438965
sg5
I57
sg6
g7
sg8
I9
sg9
I120
sg10
I416
sg11
F7.911067962646484
sa(dp107
g3
F33.000000000000895
sg4
F0.07440495491027832
sg5
I51
sg6
g7
sg8
I9
sg9
I120
sg10
I416
sg11
F8.178809881210327
sa(dp108
g3
F39.99999999999828
sg4
F0.08519792556762695
sg5
I55
sg6
g7
sg8
I9
sg9
I120
sg10
I416
sg11
F9.995033979415894
sasI10
(lp109
(dp110
g3
F42.00000000000052
sg4
F0.08107709884643555
sg5
I63
sg6
g7
sg8
I10
sg9
I120
sg10
I416
sg11
F8.191447973251343
sa(dp111
g3
F37.00000000000039
sg4
F0.04027390480041504
sg5
I37
sg6
g7
sg8
I10
sg9
I120
sg10
I416
sg11
F7.875769138336182
sa(dp112
g3
F42.99999999999959
sg4
F0.09311985969543457
sg5
I85
sg6
g7
sg8
I10
sg9
I120
sg10
I416
sg11
F7.936537027359009
sa(dp113
g3
F36.99999999999914
sg4
F0.09250092506408691
sg5
I66
sg6
g7
sg8
I10
sg9
I120
sg10
I416
sg11
F9.007567167282104
sa(dp114
g3
F43.99999999999995
sg4
F0.039424896240234375
sg5
I53
sg6
g7
sg8
I10
sg9
I120
sg10
I416
sg11
F8.27307915687561
sa(dp115
g3
F35.0
sg4
F0.032922983169555664
sg5
I35
sg6
g7
sg8
I10
sg9
I120
sg10
I416
sg11
F3.7460060119628906
sa(dp116
g3
F40.00000000000016
sg4
F0.05388593673706055
sg5
I46
sg6
g7
sg8
I10
sg9
I120
sg10
I416
sg11
F7.6717400550842285
sa(dp117
g3
F30.000000000000046
sg4
F0.03312802314758301
sg5
I30
sg6
g7
sg8
I10
sg9
I120
sg10
I416
sg11
F5.39388108253479
sa(dp118
g3
F38.00000000000021
sg4
F0.05253887176513672
sg5
I46
sg6
g7
sg8
I10
sg9
I120
sg10
I416
sg11
F8.891572952270508
sa(dp119
g3
F36.99999999999792
sg4
F0.09030985832214355
sg5
I59
sg6
g7
sg8
I10
sg9
I120
sg10
I416
sg11
F9.162201881408691
sasI11
(lp120
(dp121
g3
F37.999999999996994
sg4
F0.09578704833984375
sg5
I78
sg6
g7
sg8
I11
sg9
I120
sg10
I416
sg11
F8.454352855682373
sa(dp122
g3
F41.00000000000988
sg4
F0.08855485916137695
sg5
I73
sg6
g7
sg8
I11
sg9
I120
sg10
I416
sg11
F8.034095048904419
sa(dp123
g3
F41.00000000000069
sg4
F0.08806300163269043
sg5
I71
sg6
g7
sg8
I11
sg9
I120
sg10
I416
sg11
F7.839521884918213
sa(dp124
g3
F35.999999999999694
sg4
F0.09012007713317871
sg5
I61
sg6
g7
sg8
I11
sg9
I120
sg10
I416
sg11
F7.543507099151611
sa(dp125
g3
F37.99999999999833
sg4
F0.04850292205810547
sg5
I47
sg6
g7
sg8
I11
sg9
I120
sg10
I416
sg11
F7.328558921813965
sa(dp126
g3
F46.500000000001144
sg4
F0.06720113754272461
sg5
I77
sg6
g7
sg8
I11
sg9
I120
sg10
I416
sg11
F7.8226799964904785
sa(dp127
g3
F37.99999999999913
sg4
F0.06033802032470703
sg5
I38
sg6
g7
sg8
I11
sg9
I120
sg10
I416
sg11
F7.943004846572876
sa(dp128
g3
F37.99999999999973
sg4
F0.08613705635070801
sg5
I63
sg6
g7
sg8
I11
sg9
I120
sg10
I416
sg11
F7.666236877441406
sa(dp129
g3
F46.00000000000006
sg4
F0.04937887191772461
sg5
I46
sg6
g7
sg8
I11
sg9
I120
sg10
I416
sg11
F8.795082807540894
sa(dp130
g3
F36.99999999999905
sg4
F0.09466910362243652
sg5
I73
sg6
g7
sg8
I11
sg9
I120
sg10
I416
sg11
F8.467988014221191
sasI12
(lp131
(dp132
g3
F51.99999999999997
sg4
F0.035491943359375
sg5
I52
sg6
g7
sg8
I12
sg9
I120
sg10
I416
sg11
F7.688477039337158
sa(dp133
g3
F43.99999999999978
sg4
F0.035772085189819336
sg5
I52
sg6
g7
sg8
I12
sg9
I120
sg10
I416
sg11
F7.876770973205566
sa(dp134
g3
F36.99999999999997
sg4
F0.035325050354003906
sg5
I37
sg6
g7
sg8
I12
sg9
I120
sg10
I416
sg11
F7.871491193771362
sa(dp135
g3
F41.49999999999989
sg4
F0.07468008995056152
sg5
I76
sg6
g7
sg8
I12
sg9
I120
sg10
I416
sg11
F7.7432191371917725
sa(dp136
g3
F40.00000000000116
sg4
F0.09476590156555176
sg5
I72
sg6
g7
sg8
I12
sg9
I120
sg10
I416
sg11
F7.798413038253784
sa(dp137
g3
F41.50000000000117
sg4
F0.11016488075256348
sg5
I72
sg6
g7
sg8
I12
sg9
I120
sg10
I416
sg11
F8.267397165298462
sa(dp138
g3
F42.000000000000284
sg4
F0.10434508323669434
sg5
I82
sg6
g7
sg8
I12
sg9
I120
sg10
I416
sg11
F8.116295099258423
sa(dp139
g3
F42.00000000000032
sg4
F0.08431100845336914
sg5
I68
sg6
g7
sg8
I12
sg9
I120
sg10
I416
sg11
F8.142393112182617
sa(dp140
g3
F35.000000000001556
sg4
F0.09735298156738281
sg5
I69
sg6
g7
sg8
I12
sg9
I120
sg10
I416
sg11
F8.08394193649292
sa(dp141
g3
F36.99999999999984
sg4
F0.07162904739379883
sg5
I56
sg6
g7
sg8
I12
sg9
I120
sg10
I416
sg11
F7.39520788192749
sas.