(dp0
I130
(lp1
(dp2
S'obj_LP'
p3
F214.0
sS't_RG'
p4
F0.5497820377349854
sS'obj_RG'
p5
I300
sS'type'
p6
S'grid'
p7
sS'k'
p8
I7
sS'n'
p9
I137
sS'm'
p10
I518
sS't_solve_LP'
p11
F8.00872802734375
sa(dp12
g3
F186.5
sg4
F0.5823848247528076
sg5
I268
sg6
g7
sg8
I7
sg9
I137
sg10
I512
sg11
F8.466779232025146
sa(dp13
g3
F202.0
sg4
F0.6300358772277832
sg5
I278
sg6
g7
sg8
I7
sg9
I137
sg10
I513
sg11
F7.402568101882935
sa(dp14
g3
F195.0
sg4
F0.6485579013824463
sg5
I258
sg6
g7
sg8
I7
sg9
I137
sg10
I514
sg11
F7.979386806488037
sa(dp15
g3
F191.5
sg4
F0.671212911605835
sg5
I273
sg6
g7
sg8
I7
sg9
I137
sg10
I512
sg11
F6.905688047409058
sasI100
(lp16
(dp17
g3
F122.5
sg4
F0.17376399040222168
sg5
I156
sg6
g7
sg8
I5
sg9
I105
sg10
I381
sg11
F3.1250598430633545
sa(dp18
g3
F163.0
sg4
F0.1899259090423584
sg5
I196
sg6
g7
sg8
I5
sg9
I105
sg10
I398
sg11
F2.654356002807617
sa(dp19
g3
F157.5
sg4
F0.18136286735534668
sg5
I202
sg6
g7
sg8
I5
sg9
I105
sg10
I393
sg11
F3.2425129413604736
sa(dp20
g3
F157.0
sg4
F0.19408488273620605
sg5
I193
sg6
g7
sg8
I5
sg9
I105
sg10
I392
sg11
F2.6493308544158936
sa(dp21
g3
F120.5
sg4
F0.21196293830871582
sg5
I163
sg6
g7
sg8
I5
sg9
I105
sg10
I380
sg11
F2.9932050704956055
sasI70
(lp22
(dp23
g3
F107.0
sg4
F0.04213690757751465
sg5
I134
sg6
g7
sg8
I4
sg9
I74
sg10
I275
sg11
F1.00626802444458
sa(dp24
g3
F95.0
sg4
F0.04362797737121582
sg5
I105
sg6
g7
sg8
I4
sg9
I74
sg10
I267
sg11
F1.182539939880371
sa(dp25
g3
F81.0
sg4
F0.043517112731933594
sg5
I96
sg6
g7
sg8
I4
sg9
I74
sg10
I260
sg11
F1.0095479488372803
sa(dp26
g3
F93.0
sg4
F0.04960298538208008
sg5
I94
sg6
g7
sg8
I4
sg9
I74
sg10
I265
sg11
F1.3117940425872803
sa(dp27
g3
F98.5
sg4
F0.04572105407714844
sg5
I138
sg6
g7
sg8
I4
sg9
I74
sg10
I264
sg11
F1.1695339679718018
sasI40
(lp28
(dp29
g3
F46.0
sg4
F0.00470280647277832
sg5
I46
sg6
g7
sg8
I2
sg9
I42
sg10
I142
sg11
F0.2918729782104492
sa(dp30
g3
F23.0
sg4
F0.004848957061767578
sg5
I23
sg6
g7
sg8
I2
sg9
I42
sg10
I137
sg11
F0.28351593017578125
sa(dp31
g3
F31.0
sg4
F0.0053369998931884766
sg5
I31
sg6
g7
sg8
I2
sg9
I42
sg10
I144
sg11
F0.3153197765350342
sa(dp32
g3
F35.0
sg4
F0.00535893440246582
sg5
I35
sg6
g7
sg8
I2
sg9
I42
sg10
I140
sg11
F0.30034899711608887
sa(dp33
g3
F33.0
sg4
F0.0053479671478271484
sg5
I33
sg6
g7
sg8
I2
sg9
I42
sg10
I135
sg11
F0.2879340648651123
sasI140
(lp34
(dp35
g3
F209.0
sg4
F0.7761719226837158
sg5
I302
sg6
g7
sg8
I7
sg9
I147
sg10
I552
sg11
F10.17634105682373
sa(dp36
g3
F235.0
sg4
F0.8063180446624756
sg5
I301
sg6
g7
sg8
I7
sg9
I147
sg10
I562
sg11
F10.016760110855103
sa(dp37
g3
F214.5
sg4
F0.8550810813903809
sg5
I280
sg6
g7
sg8
I7
sg9
I147
sg10
I554
sg11
F9.776587963104248
sa(dp38
g3
F209.5
sg4
F0.8686449527740479
sg5
I296
sg6
g7
sg8
I7
sg9
I147
sg10
I556
sg11
F10.578885078430176
sa(dp39
g3
F178.0
sg4
F0.945065975189209
sg5
I278
sg6
g7
sg8
I7
sg9
I147
sg10
I545
sg11
F9.860574960708618
sasI110
(lp40
(dp41
g3
F151.0
sg4
F0.26146602630615234
sg5
I205
sg6
g7
sg8
I6
sg9
I116
sg10
I427
sg11
F5.045992136001587
sa(dp42
g3
F138.5
sg4
F0.2812938690185547
sg5
I171
sg6
g7
sg8
I6
sg9
I116
sg10
I424
sg11
F4.41389799118042
sa(dp43
g3
F158.0
sg4
F0.28810691833496094
sg5
I206
sg6
g7
sg8
I6
sg9
I116
sg10
I431
sg11
F4.713068008422852
sa(dp44
g3
F170.0
sg4
F0.29859495162963867
sg5
I239
sg6
g7
sg8
I6
sg9
I116
sg10
I433
sg11
F4.267061948776245
sa(dp45
g3
F158.0
sg4
F0.31748199462890625
sg5
I219
sg6
g7
sg8
I6
sg9
I116
sg10
I430
sg11
F4.252641916275024
sasI80
(lp46
(dp47
g3
F122.0
sg4
F0.06918478012084961
sg5
I147
sg6
g7
sg8
I4
sg9
I84
sg10
I313
sg11
F1.3107969760894775
sa(dp48
g3
F109.5
sg4
F0.07152390480041504
sg5
I136
sg6
g7
sg8
I4
sg9
I84
sg10
I308
sg11
F1.6352970600128174
sa(dp49
g3
F112.5
sg4
F0.0714559555053711
sg5
I150
sg6
g7
sg8
I4
sg9
I84
sg10
I308
sg11
F1.4444200992584229
sa(dp50
g3
F120.0
sg4
F0.07418394088745117
sg5
I162
sg6
g7
sg8
I4
sg9
I84
sg10
I309
sg11
F1.3282430171966553
sa(dp51
g3
F92.5
sg4
F0.08078312873840332
sg5
I127
sg6
g7
sg8
I4
sg9
I84
sg10
I299
sg11
F1.586731195449829
sasI50
(lp52
(dp53
g3
F51.5
sg4
F0.01038503646850586
sg5
I58
sg6
g7
sg8
I3
sg9
I53
sg10
I178
sg11
F0.4740488529205322
sa(dp54
g3
F51.5
sg4
F0.01073598861694336
sg5
I58
sg6
g7
sg8
I3
sg9
I53
sg10
I176
sg11
F0.46114683151245117
sa(dp55
g3
F70.0
sg4
F0.011416912078857422
sg5
I89
sg6
g7
sg8
I3
sg9
I53
sg10
I184
sg11
F0.4991469383239746
sa(dp56
g3
F69.5
sg4
F0.013155221939086914
sg5
I78
sg6
g7
sg8
I3
sg9
I53
sg10
I186
sg11
F0.48191404342651367
sa(dp57
g3
F45.5
sg4
F0.016510963439941406
sg5
I50
sg6
g7
sg8
I3
sg9
I53
sg10
I174
sg11
F0.4386770725250244
sasI120
(lp58
(dp59
g3
F181.0
sg4
F0.3861379623413086
sg5
I245
sg6
g7
sg8
I6
sg9
I126
sg10
I476
sg11
F6.4497880935668945
sa(dp60
g3
F183.0
sg4
F0.40456104278564453
sg5
I238
sg6
g7
sg8
I6
sg9
I126
sg10
I474
sg11
F4.394813060760498
sa(dp61
g3
F179.5
sg4
F0.43842196464538574
sg5
I257
sg6
g7
sg8
I6
sg9
I126
sg10
I473
sg11
F4.830060958862305
sa(dp62
g3
F197.5
sg4
F0.5067050457000732
sg5
I271
sg6
g7
sg8
I6
sg9
I126
sg10
I476
sg11
F4.059828042984009
sa(dp63
g3
F184.5
sg4
F0.4415781497955322
sg5
I263
sg6
g7
sg8
I6
sg9
I126
sg10
I473
sg11
F4.075869083404541
sasI90
(lp64
(dp65
g3
F150.5
sg4
F0.11225509643554688
sg5
I177
sg6
g7
sg8
I5
sg9
I95
sg10
I352
sg11
F1.9707541465759277
sa(dp66
g3
F132.5
sg4
F0.10874295234680176
sg5
I176
sg6
g7
sg8
I5
sg9
I95
sg10
I349
sg11
F2.4808881282806396
sa(dp67
g3
F130.0
sg4
F0.11815381050109863
sg5
I175
sg6
g7
sg8
I5
sg9
I95
sg10
I348
sg11
F1.9627511501312256
sa(dp68
g3
F150.5
sg4
F0.12924408912658691
sg5
I184
sg6
g7
sg8
I5
sg9
I95
sg10
I354
sg11
F1.853482961654663
sa(dp69
g3
F131.5
sg4
F0.13266491889953613
sg5
I176
sg6
g7
sg8
I5
sg9
I95
sg10
I345
sg11
F2.237687826156616
sasI60
(lp70
(dp71
g3
F89.5
sg4
F0.020164012908935547
sg5
I99
sg6
g7
sg8
I3
sg9
I63
sg10
I228
sg11
F0.7216620445251465
sa(dp72
g3
F74.5
sg4
F0.02118396759033203
sg5
I87
sg6
g7
sg8
I3
sg9
I63
sg10
I223
sg11
F0.8663468360900879
sa(dp73
g3
F78.0
sg4
F0.024317026138305664
sg5
I89
sg6
g7
sg8
I3
sg9
I63
sg10
I223
sg11
F0.7344849109649658
sa(dp74
g3
F78.0
sg4
F0.025456905364990234
sg5
I86
sg6
g7
sg8
I3
sg9
I63
sg10
I225
sg11
F0.7399799823760986
sa(dp75
g3
F69.5
sg4
F0.026669979095458984
sg5
I78
sg6
g7
sg8
I3
sg9
I63
sg10
I219
sg11
F0.6916170120239258
sasI30
(lp76
(dp77
g3
F23.0
sg4
F0.0013000965118408203
sg5
I23
sg6
g7
sg8
I2
sg9
I32
sg10
I95
sg11
F0.15255403518676758
sa(dp78
g3
F14.0
sg4
F0.002109050750732422
sg5
I14
sg6
g7
sg8
I2
sg9
I32
sg10
I94
sg11
F0.14293599128723145
sa(dp79
g3
F19.0
sg4
F0.0023169517517089844
sg5
I19
sg6
g7
sg8
I2
sg9
I32
sg10
I98
sg11
F0.1511080265045166
sa(dp80
g3
F26.0
sg4
F0.002404928207397461
sg5
I26
sg6
g7
sg8
I2
sg9
I32
sg10
I96
sg11
F0.15052103996276855
sa(dp81
g3
F28.0
sg4
F0.002789020538330078
sg5
I28
sg6
g7
sg8
I2
sg9
I32
sg10
I100
sg11
F0.1520540714263916
sas.