(dp0
I40
(lp1
(dp2
S'obj_LP'
p3
F57.5
sS'obj_RG'
p4
I74
sS'k'
p5
I4
sS'm'
p6
I144
sS'n'
p7
I44
sS'obj_IP'
p8
F64.0
sS'type'
p9
S'grid'
p10
sa(dp11
g3
F59.5
sg4
I78
sg5
I4
sg6
I142
sg7
I44
sg8
F64.0
sg9
g10
sa(dp12
g3
F48.5
sg4
I70
sg5
I4
sg6
I145
sg7
I44
sg8
F52.0
sg9
g10
sa(dp13
g3
F37.0
sg4
I48
sg5
I4
sg6
I137
sg7
I44
sg8
F42.0
sg9
g10
sa(dp14
g3
F54.5
sg4
I63
sg5
I4
sg6
I144
sg7
I44
sg8
F59.0
sg9
g10
sasI25
(lp15
(dp16
g3
F33.5
sg4
I40
sg5
I4
sg6
I86
sg7
I29
sg8
F39.0
sg9
g10
sa(dp17
g3
F38.5
sg4
I41
sg5
I4
sg6
I89
sg7
I29
sg8
F41.0
sg9
g10
sa(dp18
g3
F30.5
sg4
I37
sg5
I4
sg6
I85
sg7
I29
sg8
F37.0
sg9
g10
sa(dp19
g3
F34.0
sg4
I37
sg5
I4
sg6
I87
sg7
I29
sg8
F36.0
sg9
g10
sa(dp20
g3
F36.0
sg4
I37
sg5
I4
sg6
I85
sg7
I29
sg8
F37.0
sg9
g10
sasI85
(lp21
(dp22
g3
F112.5
sg4
I154
sg5
I4
sg6
I317
sg7
I89
sg8
F128.0
sg9
g10
sa(dp23
g3
F138.0
sg4
I163
sg5
I4
sg6
I323
sg7
I89
sg8
F152.0
sg9
g10
sa(dp24
g3
F120.5
sg4
I141
sg5
I4
sg6
I323
sg7
I89
sg8
F134.0
sg9
g10
sa(dp25
g3
F120.0
sg4
I160
sg5
I4
sg6
I319
sg7
I89
sg8
F136.0
sg9
g10
sa(dp26
g3
F102.5
sg4
I121
sg5
I4
sg6
I312
sg7
I89
sg8
F111.0
sg9
g10
sasI70
(lp27
(dp28
g3
F85.5
sg4
I106
sg5
I4
sg6
I256
sg7
I74
sg8
F97.0
sg9
g10
sa(dp29
g3
F82.5
sg4
I97
sg5
I4
sg6
I254
sg7
I74
sg8
F87.0
sg9
g10
sa(dp30
g3
F82.5
sg4
I105
sg5
I4
sg6
I257
sg7
I74
sg8
F90.0
sg9
g10
sa(dp31
g3
F86.5
sg4
I109
sg5
I4
sg6
I258
sg7
I74
sg8
F100.0
sg9
g10
sa(dp32
g3
F93.5
sg4
I125
sg5
I4
sg6
I257
sg7
I74
sg8
F107.0
sg9
g10
sasI55
(lp33
(dp34
g3
F64.5
sg4
I72
sg5
I4
sg6
I198
sg7
I59
sg8
F68.0
sg9
g10
sa(dp35
g3
F66.5
sg4
I95
sg5
I4
sg6
I199
sg7
I59
sg8
F75.0
sg9
g10
sa(dp36
g3
F88.5
sg4
I99
sg5
I4
sg6
I205
sg7
I59
sg8
F95.0
sg9
g10
sa(dp37
g3
F54.000000000000014
sg4
I60
sg5
I4
sg6
I197
sg7
I59
sg8
F60.0
sg9
g10
sa(dp38
g3
F69.5
sg4
I94
sg5
I4
sg6
I199
sg7
I59
sg8
F76.0
sg9
g10
sas.