(dp0
I160
(lp1
(dp2
S'obj_LP'
p3
F259.0
sS't_RG'
p4
F-1.1975688934326172
sS'obj_RG'
p5
I374
sS'type'
p6
S'grid'
p7
sS'k'
p8
I8
sS'n'
p9
I168
sS'm'
p10
I643
sS't_solve_LP'
p11
F-15.857367992401123
sa(dp12
g3
F259.0
sg4
F-1.211549997329712
sg5
I368
sg6
g7
sg8
I8
sg9
I168
sg10
I643
sg11
F-15.41581392288208
sa(dp13
g3
F279.5
sg4
F-1.2537429332733154
sg5
I379
sg6
g7
sg8
I8
sg9
I168
sg10
I649
sg11
F-14.098504066467285
sa(dp14
g3
F248.0
sg4
F-1.3186309337615967
sg5
I353
sg6
g7
sg8
I8
sg9
I168
sg10
I637
sg11
F-15.463190078735352
sa(dp15
g3
F242.0
sg4
F-1.4104669094085693
sg5
I349
sg6
g7
sg8
I8
sg9
I168
sg10
I639
sg11
F-15.229789972305298
sasI130
(lp16
(dp17
g3
F193.0
sg4
F-0.36020612716674805
sg5
I285
sg6
g7
sg8
I7
sg9
I137
sg10
I510
sg11
F-8.168038129806519
sa(dp18
g3
F228.5
sg4
F-0.37250208854675293
sg5
I311
sg6
g7
sg8
I7
sg9
I137
sg10
I527
sg11
F-6.652573823928833
sa(dp19
g3
F192.5
sg4
F-0.3946220874786377
sg5
I270
sg6
g7
sg8
I7
sg9
I137
sg10
I513
sg11
F-7.957995891571045
sa(dp20
g3
F191.0
sg4
F-0.42411088943481445
sg5
I274
sg6
g7
sg8
I7
sg9
I137
sg10
I511
sg11
F-7.922867774963379
sa(dp21
g3
F194.0
sg4
F-0.46488094329833984
sg5
I271
sg6
g7
sg8
I7
sg9
I137
sg10
I511
sg11
F-8.112968921661377
sasI100
(lp22
(dp23
g3
F147.0
sg4
F-0.03609108924865723
sg5
I180
sg6
g7
sg8
I5
sg9
I105
sg10
I393
sg11
F-3.424116849899292
sa(dp24
g3
F126.0
sg4
F-0.046671152114868164
sg5
I171
sg6
g7
sg8
I5
sg9
I105
sg10
I386
sg11
F-3.748734951019287
sa(dp25
g3
F146.5
sg4
F-0.056613922119140625
sg5
I186
sg6
g7
sg8
I5
sg9
I105
sg10
I390
sg11
F-3.5409488677978516
sa(dp26
g3
F149.0
sg4
F-0.06326699256896973
sg5
I197
sg6
g7
sg8
I5
sg9
I105
sg10
I389
sg11
F-3.244188070297241
sa(dp27
g3
F124.5
sg4
F-0.07674193382263184
sg5
I162
sg6
g7
sg8
I5
sg9
I105
sg10
I382
sg11
F-2.556298017501831
sasI200
(lp28
(dp29
g3
F333.5
sg4
F-3.7868258953094482
sg5
I472
sg6
g7
sg8
I10
sg9
I210
sg10
I814
sg11
F-34.99090099334717
sa(dp30
g3
F292.5
sg4
F-4.167670011520386
sg5
I417
sg6
g7
sg8
I10
sg9
I210
sg10
I800
sg11
F-33.20510411262512
sa(dp31
g3
F353.0
sg4
F-4.0534021854400635
sg5
I477
sg6
g7
sg8
I10
sg9
I210
sg10
I817
sg11
F-30.938584089279175
sa(dp32
g3
F306.0
sg4
F-4.19575309753418
sg5
I443
sg6
g7
sg8
I10
sg9
I210
sg10
I802
sg11
F-33.272802114486694
sa(dp33
g3
F288.5
sg4
F-4.3029539585113525
sg5
I429
sg6
g7
sg8
I10
sg9
I210
sg10
I797
sg11
F-34.76287317276001
sasI170
(lp34
(dp35
g3
F271.5
sg4
F-1.6228878498077393
sg5
I385
sg6
g7
sg8
I9
sg9
I179
sg10
I682
sg11
F-19.62559485435486
sa(dp36
g3
F255.0
sg4
F-1.7363622188568115
sg5
I354
sg6
g7
sg8
I9
sg9
I179
sg10
I677
sg11
F-19.733644008636475
sa(dp37
g3
F238.0
sg4
F-1.8465769290924072
sg5
I323
sg6
g7
sg8
I9
sg9
I179
sg10
I674
sg11
F-19.349262952804565
sa(dp38
g3
F296.0
sg4
F-1.9734032154083252
sg5
I412
sg6
g7
sg8
I9
sg9
I179
sg10
I687
sg11
F-17.994692087173462
sa(dp39
g3
F254.0
sg4
F-1.9768731594085693
sg5
I345
sg6
g7
sg8
I9
sg9
I179
sg10
I678
sg11
F-20.306212902069092
sasI140
(lp40
(dp41
g3
F217.5
sg4
F-0.5592060089111328
sg5
I299
sg6
g7
sg8
I7
sg9
I147
sg10
I556
sg11
F-9.649415016174316
sa(dp42
g3
F240.0
sg4
F-0.6163649559020996
sg5
I324
sg6
g7
sg8
I7
sg9
I147
sg10
I563
sg11
F-8.290178060531616
sa(dp43
g3
F198.5
sg4
F-0.6251168251037598
sg5
I292
sg6
g7
sg8
I7
sg9
I147
sg10
I555
sg11
F-11.296941995620728
sa(dp44
g3
F189.0
sg4
F-0.740185022354126
sg5
I288
sg6
g7
sg8
I7
sg9
I147
sg10
I546
sg11
F-11.64873194694519
sa(dp45
g3
F185.5
sg4
F-0.7186129093170166
sg5
I261
sg6
g7
sg8
I7
sg9
I147
sg10
I546
sg11
F-11.361486911773682
sasI110
(lp46
(dp47
g3
F188.0
sg4
F-0.10821294784545898
sg5
I252
sg6
g7
sg8
I6
sg9
I116
sg10
I441
sg11
F-3.471116065979004
sa(dp48
g3
F148.0
sg4
F-0.17852306365966797
sg5
I202
sg6
g7
sg8
I6
sg9
I116
sg10
I429
sg11
F-3.9970099925994873
sa(dp49
g3
F162.5
sg4
F-0.14163804054260254
sg5
I237
sg6
g7
sg8
I6
sg9
I116
sg10
I432
sg11
F-3.638172149658203
sa(dp50
g3
F178.0
sg4
F-0.145751953125
sg5
I239
sg6
g7
sg8
I6
sg9
I116
sg10
I435
sg11
F-3.5376811027526855
sa(dp51
g3
F166.0
sg4
F-0.23411297798156738
sg5
I237
sg6
g7
sg8
I6
sg9
I116
sg10
I431
sg11
F-4.501816987991333
sasI180
(lp52
(dp53
g3
F296.0
sg4
F-2.2901859283447266
sg5
I389
sg6
g7
sg8
I9
sg9
I189
sg10
I726
sg11
F-22.831979036331177
sa(dp54
g3
F288.0
sg4
F-2.244581937789917
sg5
I396
sg6
g7
sg8
I9
sg9
I189
sg10
I723
sg11
F-21.574245929718018
sa(dp55
g3
F280.5
sg4
F-2.3507559299468994
sg5
I392
sg6
g7
sg8
I9
sg9
I189
sg10
I722
sg11
F-24.018730878829956
sa(dp56
g3
F262.0
sg4
F-2.4601340293884277
sg5
I363
sg6
g7
sg8
I9
sg9
I189
sg10
I719
sg11
F-24.91868495941162
sa(dp57
g3
F315.0
sg4
F-2.437978982925415
sg5
I448
sg6
g7
sg8
I9
sg9
I189
sg10
I732
sg11
F-21.587924003601074
sasI150
(lp58
(dp59
g3
F265.0
sg4
F-0.8976659774780273
sg5
I358
sg6
g7
sg8
I8
sg9
I158
sg10
I606
sg11
F-10.952491044998169
sa(dp60
g3
F264.0
sg4
F-0.8611960411071777
sg5
I362
sg6
g7
sg8
I8
sg9
I158
sg10
I608
sg11
F-12.088205099105835
sa(dp61
g3
F227.0
sg4
F-0.9123570919036865
sg5
I327
sg6
g7
sg8
I8
sg9
I158
sg10
I594
sg11
F-12.706080913543701
sa(dp62
g3
F207.5
sg4
F-0.9522459506988525
sg5
I306
sg6
g7
sg8
I8
sg9
I158
sg10
I588
sg11
F-13.548864126205444
sa(dp63
g3
F268.5
sg4
F-0.9674830436706543
sg5
I383
sg6
g7
sg8
I8
sg9
I158
sg10
I605
sg11
F-11.219706058502197
sasI120
(lp64
(dp65
g3
F183.0
sg4
F-0.22610092163085938
sg5
I248
sg6
g7
sg8
I6
sg9
I126
sg10
I475
sg11
F-6.002547025680542
sa(dp66
g3
F210.5
sg4
F-0.21870899200439453
sg5
I290
sg6
g7
sg8
I6
sg9
I126
sg10
I485
sg11
F-5.518735885620117
sa(dp67
g3
F165.5
sg4
F-0.3015868663787842
sg5
I246
sg6
g7
sg8
I6
sg9
I126
sg10
I467
sg11
F-6.221970796585083
sa(dp68
g3
F170.5
sg4
F-0.2648138999938965
sg5
I228
sg6
g7
sg8
I6
sg9
I126
sg10
I470
sg11
F-6.100483179092407
sa(dp69
g3
F207.5
sg4
F-0.2773561477661133
sg5
I256
sg6
g7
sg8
I6
sg9
I126
sg10
I480
sg11
F-5.6700279712677
sasI190
(lp70
(dp71
g3
F305.5
sg4
F-2.8487040996551514
sg5
I443
sg6
g7
sg8
I10
sg9
I200
sg10
I763
sg11
F-28.861753940582275
sa(dp72
g3
F315.5
sg4
F-2.99418306350708
sg5
I448
sg6
g7
sg8
I10
sg9
I200
sg10
I766
sg11
F-26.55837106704712
sa(dp73
g3
F343.0
sg4
F-3.003491163253784
sg5
I492
sg6
g7
sg8
I10
sg9
I200
sg10
I775
sg11
F-27.178313970565796
sa(dp74
g3
F336.0
sg4
F-3.192038059234619
sg5
I454
sg6
g7
sg8
I10
sg9
I200
sg10
I773
sg11
F-27.173274993896484
sa(dp75
g3
F292.5
sg4
F-3.3201658725738525
sg5
I418
sg6
g7
sg8
I10
sg9
I200
sg10
I762
sg11
F-30.05608105659485
sas.