(dp0
I160
(lp1
(dp2
S'obj_LP'
p3
F12.630250164999998
sS't_RG'
p4
F-0.608414888381958
sS'obj_RG'
p5
F19.891825600000026
sS'type'
p6
S'planar'
p7
sS'k'
p8
I8
sS'n'
p9
I160
sS'm'
p10
I467
sS't_solve_LP'
p11
F-8.392569065093994
sa(dp12
g3
F10.889131754950501
sg4
F-0.5487730503082275
sg5
F17.58842200000001
sg6
g7
sg8
I8
sg9
I160
sg10
I463
sg11
F-9.919745922088623
sa(dp13
g3
F12.586094494220426
sg4
F-0.591425895690918
sg5
F23.315073700000013
sg6
g7
sg8
I8
sg9
I160
sg10
I466
sg11
F-8.547782897949219
sa(dp14
g3
F11.503040185582824
sg4
F-0.6019799709320068
sg5
F17.0913683
sg6
g7
sg8
I8
sg9
I160
sg10
I466
sg11
F-8.652052879333496
sasI130
(lp15
(dp16
g3
F10.627567100000002
sg4
F-0.23243188858032227
sg5
F11.5381262
sg6
g7
sg8
I7
sg9
I130
sg10
I375
sg11
F-6.0160229206085205
sa(dp17
g3
F7.912624373863638
sg4
F-0.29717493057250977
sg5
F12.5033942
sg6
g7
sg8
I7
sg9
I130
sg10
I373
sg11
F-5.001593112945557
sa(dp18
g3
F8.973585603030305
sg4
F-0.27166295051574707
sg5
F13.148535800000007
sg6
g7
sg8
I7
sg9
I130
sg10
I373
sg11
F-4.500037908554077
sa(dp19
g3
F9.22838160344828
sg4
F-0.2977890968322754
sg5
F16.927944800000002
sg6
g7
sg8
I7
sg9
I130
sg10
I371
sg11
F-4.342591047286987
sasI100
(lp20
(dp21
g3
F8.11256010714286
sg4
F-0.11049604415893555
sg5
F13.660856000000008
sg6
g7
sg8
I5
sg9
I100
sg10
I285
sg11
F-2.2112650871276855
sa(dp22
g3
F8.405121041847826
sg4
F-0.11425089836120605
sg5
F12.275636800000003
sg6
g7
sg8
I5
sg9
I100
sg10
I284
sg11
F-2.2913689613342285
sa(dp23
g3
F9.788254750000004
sg4
F-0.10611295700073242
sg5
F12.972646399999999
sg6
g7
sg8
I5
sg9
I100
sg10
I290
sg11
F-2.4978268146514893
sa(dp24
g3
F8.03316283831169
sg4
F-0.12595891952514648
sg5
F16.850106300000004
sg6
g7
sg8
I5
sg9
I100
sg10
I286
sg11
F-2.130690813064575
sasI70
(lp25
(dp26
g3
F6.364619999999999
sg4
F-0.028912067413330078
sg5
F7.520188999999999
sg6
g7
sg8
I4
sg9
I70
sg10
I198
sg11
F-1.050900936126709
sa(dp27
g3
F6.36554825
sg4
F-0.030619144439697266
sg5
F7.570258
sg6
g7
sg8
I4
sg9
I70
sg10
I197
sg11
F-1.0390160083770752
sa(dp28
g3
F7.048093549999999
sg4
F-0.032610177993774414
sg5
F9.4878598
sg6
g7
sg8
I4
sg9
I70
sg10
I195
sg11
F-0.9661829471588135
sa(dp29
g3
F8.226166454545455
sg4
F-0.03703880310058594
sg5
F13.109396400000001
sg6
g7
sg8
I4
sg9
I70
sg10
I199
sg11
F-0.9225771427154541
sasI40
(lp30
(dp31
g3
F4.929981999999999
sg4
F-0.0057599544525146484
sg5
F5.502038999999999
sg6
g7
sg8
I2
sg9
I40
sg10
I106
sg11
F-0.19493699073791504
sa(dp32
g3
F4.202065500000001
sg4
F-0.005594968795776367
sg5
F5.057880000000002
sg6
g7
sg8
I2
sg9
I40
sg10
I105
sg11
F-0.19313406944274902
sa(dp33
g3
F4.260619000000001
sg4
F-0.007008075714111328
sg5
F6.101230000000001
sg6
g7
sg8
I2
sg9
I40
sg10
I104
sg11
F-0.1908130645751953
sa(dp34
g3
F5.488094545454545
sg4
F-0.010172128677368164
sg5
F7.8530859999999985
sg6
g7
sg8
I2
sg9
I40
sg10
I110
sg11
F-0.2836589813232422
sasI10
(lp35
(dp36
g3
F1.65741
sg4
F-0.00014495849609375
sg5
F1.65741
sg6
g7
sg8
I1
sg9
I10
sg10
I20
sg11
F-0.019205093383789062
sa(dp37
g3
F1.8587099999999999
sg4
F-0.00017309188842773438
sg5
F1.8587099999999999
sg6
g7
sg8
I1
sg9
I10
sg10
I22
sg11
F-0.012298107147216797
sa(dp38
g3
F1.914349
sg4
F-0.0002949237823486328
sg5
F1.914349
sg6
g7
sg8
I1
sg9
I10
sg10
I22
sg11
F-0.011918067932128906
sa(dp39
g3
F3.1222265
sg4
F-0.0002791881561279297
sg5
F3.228273
sg6
g7
sg8
I1
sg9
I10
sg10
I21
sg11
F-0.012704849243164062
sasI140
(lp40
(dp41
g3
F9.408130674999999
sg4
F-0.2912471294403076
sg5
F10.670593400000001
sg6
g7
sg8
I7
sg9
I140
sg10
I403
sg11
F-6.360870838165283
sa(dp42
g3
F9.647820097990646
sg4
F-0.4062840938568115
sg5
F16.368219000000003
sg6
g7
sg8
I7
sg9
I140
sg10
I402
sg11
F-6.452370882034302
sa(dp43
g3
F8.861984900000003
sg4
F-0.29833388328552246
sg5
F9.334372400000003
sg6
g7
sg8
I7
sg9
I140
sg10
I402
sg11
F-6.137953996658325
sa(dp44
g3
F10.992485100000001
sg4
F-0.36971092224121094
sg5
F14.890184100000003
sg6
g7
sg8
I7
sg9
I140
sg10
I405
sg11
F-5.841266870498657
sasI110
(lp45
(dp46
g3
F9.147558827447831
sg4
F-0.16730380058288574
sg5
F16.359407000000004
sg6
g7
sg8
I6
sg9
I110
sg10
I315
sg11
F-2.8869059085845947
sa(dp47
g3
F9.326166296923075
sg4
F-0.17157697677612305
sg5
F17.700534899999994
sg6
g7
sg8
I6
sg9
I110
sg10
I316
sg11
F-2.9020907878875732
sa(dp48
g3
F9.377733875
sg4
F-0.15160799026489258
sg5
F13.217686999999998
sg6
g7
sg8
I6
sg9
I110
sg10
I313
sg11
F-2.6899681091308594
sa(dp49
g3
F8.625901830729164
sg4
F-0.17776918411254883
sg5
F15.730415999999993
sg6
g7
sg8
I6
sg9
I110
sg10
I315
sg11
F-3.077944040298462
sasI80
(lp50
(dp51
g3
F7.053854294999997
sg4
F-0.05585789680480957
sg5
F11.633224799999999
sg6
g7
sg8
I4
sg9
I80
sg10
I225
sg11
F-1.2827959060668945
sa(dp52
g3
F7.40641916
sg4
F-0.057919979095458984
sg5
F14.828463000000001
sg6
g7
sg8
I4
sg9
I80
sg10
I227
sg11
F-1.245816946029663
sa(dp53
g3
F7.409955833333333
sg4
F-0.06010794639587402
sg5
F12.696546999999997
sg6
g7
sg8
I4
sg9
I80
sg10
I224
sg11
F-1.2347650527954102
sa(dp54
g3
F7.8705777
sg4
F-0.05707907676696777
sg5
F11.643579099999997
sg6
g7
sg8
I4
sg9
I80
sg10
I227
sg11
F-1.3406789302825928
sasI50
(lp55
(dp56
g3
F5.673887499999999
sg4
F-0.00971221923828125
sg5
F7.543596000000003
sg6
g7
sg8
I3
sg9
I50
sg10
I140
sg11
F-0.46866297721862793
sa(dp57
g3
F5.321407250000003
sg4
F-0.011871099472045898
sg5
F6.367500999999998
sg6
g7
sg8
I3
sg9
I50
sg10
I135
sg11
F-0.4383270740509033
sa(dp58
g3
F5.892882216666668
sg4
F-0.012837886810302734
sg5
F7.227755100000002
sg6
g7
sg8
I3
sg9
I50
sg10
I138
sg11
F-0.42224788665771484
sa(dp59
g3
F4.996027500000001
sg4
F-0.013443946838378906
sg5
F6.088419000000002
sg6
g7
sg8
I3
sg9
I50
sg10
I137
sg11
F-0.4474759101867676
sasI20
(lp60
(dp61
g3
F3.929184
sg4
F-0.0008230209350585938
sg5
F4.953919999999999
sg6
g7
sg8
I1
sg9
I20
sg10
I49
sg11
F-0.04530191421508789
sa(dp62
g3
F3.704674
sg4
F-0.0010149478912353516
sg5
F4.687521
sg6
g7
sg8
I1
sg9
I20
sg10
I50
sg11
F-0.04622912406921387
sa(dp63
g3
F1.563707
sg4
F-0.0010340213775634766
sg5
F1.6873150000000001
sg6
g7
sg8
I1
sg9
I20
sg10
I48
sg11
F-0.04522395133972168
sa(dp64
g3
F3.8759065000000006
sg4
F-0.0011670589447021484
sg5
F3.9771079999999994
sg6
g7
sg8
I1
sg9
I20
sg10
I51
sg11
F-0.04805111885070801
sasI190
(lp65
(dp66
g3
F12.874847831315096
sg4
F-1.0777020454406738
sg5
F23.0940636
sg6
g7
sg8
I10
sg9
I190
sg10
I553
sg11
F-15.067007064819336
sa(dp67
g3
F14.764886567647062
sg4
F-1.0568749904632568
sg5
F26.577627300000007
sg6
g7
sg8
I10
sg9
I190
sg10
I557
sg11
F-15.501040935516357
sa(dp68
g3
F12.419824544325126
sg4
F-1.1252779960632324
sg5
F21.233238900000007
sg6
g7
sg8
I10
sg9
I190
sg10
I552
sg11
F-12.644758939743042
sa(dp69
g3
F12.906299255458052
sg4
F-1.1275920867919922
sg5
F23.04676070000002
sg6
g7
sg8
I10
sg9
I190
sg10
I554
sg11
F-14.414744853973389
sasI150
(lp70
(dp71
g3
F10.788074821794876
sg4
F-0.4303860664367676
sg5
F16.6819614
sg6
g7
sg8
I8
sg9
I150
sg10
I433
sg11
F-6.685869932174683
sa(dp72
g3
F11.317913127060928
sg4
F-0.46532583236694336
sg5
F19.9556109
sg6
g7
sg8
I8
sg9
I150
sg10
I433
sg11
F-7.004755973815918
sa(dp73
g3
F10.592986489532864
sg4
F-0.4567220211029053
sg5
F18.31843418
sg6
g7
sg8
I8
sg9
I150
sg10
I432
sg11
F-6.395172834396362
sa(dp74
g3
F11.850981708098592
sg4
F-0.5427529811859131
sg5
F22.192735
sg6
g7
sg8
I8
sg9
I150
sg10
I436
sg11
F-7.107919931411743
sasI120
(lp75
(dp76
g3
F8.714246646483913
sg4
F-0.2517220973968506
sg5
F15.58951030000001
sg6
g7
sg8
I6
sg9
I120
sg10
I341
sg11
F-3.519551992416382
sa(dp77
g3
F10.190059984615381
sg4
F-0.19828295707702637
sg5
F17.1141471
sg6
g7
sg8
I6
sg9
I120
sg10
I344
sg11
F-3.6294069290161133
sa(dp78
g3
F10.16923534722223
sg4
F-0.22917795181274414
sg5
F18.0375043
sg6
g7
sg8
I6
sg9
I120
sg10
I343
sg11
F-3.375211000442505
sa(dp79
g3
F10.419850666666667
sg4
F-0.2301788330078125
sg5
F17.472107399999985
sg6
g7
sg8
I6
sg9
I120
sg10
I348
sg11
F-3.426219940185547
sasI180
(lp80
(dp81
g3
F11.901614229166666
sg4
F-0.8377549648284912
sg5
F20.925357
sg6
g7
sg8
I9
sg9
I180
sg10
I519
sg11
F-13.566649913787842
sa(dp82
g3
F11.874062671649552
sg4
F-0.9320540428161621
sg5
F21.839420699999977
sg6
g7
sg8
I9
sg9
I180
sg10
I526
sg11
F-13.923832178115845
sa(dp83
g3
F12.36238071263301
sg4
F-0.9195148944854736
sg5
F22.8116482
sg6
g7
sg8
I9
sg9
I180
sg10
I527
sg11
F-12.9926118850708
sa(dp84
g3
F12.703894790949937
sg4
F-0.8918569087982178
sg5
F22.083720400000008
sg6
g7
sg8
I9
sg9
I180
sg10
I527
sg11
F-13.863352060317993
sasI90
(lp85
(dp86
g3
F8.651743650000002
sg4
F-0.08394098281860352
sg5
F16.736463799999996
sg6
g7
sg8
I5
sg9
I90
sg10
I256
sg11
F-1.674973964691162
sa(dp87
g3
F7.764931482222223
sg4
F-0.08625316619873047
sg5
F14.05586400000001
sg6
g7
sg8
I5
sg9
I90
sg10
I257
sg11
F-1.7334799766540527
sa(dp88
g3
F7.599101000000001
sg4
F-0.07042407989501953
sg5
F7.972809
sg6
g7
sg8
I5
sg9
I90
sg10
I255
sg11
F-1.8111751079559326
sa(dp89
g3
F8.572184422330098
sg4
F-0.09395790100097656
sg5
F15.436320999999994
sg6
g7
sg8
I5
sg9
I90
sg10
I257
sg11
F-1.7025389671325684
sasI60
(lp90
(dp91
g3
F6.4249166126373645
sg4
F-0.024606943130493164
sg5
F13.880406999999996
sg6
g7
sg8
I3
sg9
I60
sg10
I168
sg11
F-0.6371479034423828
sa(dp92
g3
F6.16756075
sg4
F-0.02047896385192871
sg5
F7.390895000000002
sg6
g7
sg8
I3
sg9
I60
sg10
I166
sg11
F-0.6933310031890869
sa(dp93
g3
F6.963396024999999
sg4
F-0.022617816925048828
sg5
F10.3378473
sg6
g7
sg8
I3
sg9
I60
sg10
I167
sg11
F-0.6622319221496582
sa(dp94
g3
F7.302168227272727
sg4
F-0.027376174926757812
sg5
F11.922307
sg6
g7
sg8
I3
sg9
I60
sg10
I167
sg11
F-0.6141459941864014
sasI170
(lp95
(dp96
g3
F12.705987595955882
sg4
F-0.7017300128936768
sg5
F21.623406200000005
sg6
g7
sg8
I9
sg9
I170
sg10
I494
sg11
F-9.851224899291992
sa(dp97
g3
F11.969360687878778
sg4
F-0.7045300006866455
sg5
F19.314237999999992
sg6
g7
sg8
I9
sg9
I170
sg10
I494
sg11
F-9.742815017700195
sa(dp98
g3
F12.789537060789685
sg4
F-0.7815210819244385
sg5
F23.911773299999975
sg6
g7
sg8
I9
sg9
I170
sg10
I493
sg11
F-10.08073902130127
sa(dp99
g3
F12.741264192554365
sg4
F-0.7516100406646729
sg5
F23.6337454
sg6
g7
sg8
I9
sg9
I170
sg10
I494
sg11
F-10.296329975128174
sasI30
(lp100
(dp101
g3
F3.4845668000000005
sg4
F-0.0027039051055908203
sg5
F4.5695928
sg6
g7
sg8
I2
sg9
I30
sg10
I79
sg11
F-0.10880708694458008
sa(dp102
g3
F3.7364400000000004
sg4
F-0.0029060840606689453
sg5
F3.7364400000000004
sg6
g7
sg8
I2
sg9
I30
sg10
I80
sg11
F-0.10597395896911621
sa(dp103
g3
F3.8909529999999997
sg4
F-0.002785921096801758
sg5
F3.8909529999999997
sg6
g7
sg8
I2
sg9
I30
sg10
I77
sg11
F-0.10108685493469238
sa(dp104
g3
F4.450745
sg4
F-0.003131866455078125
sg5
F4.450745
sg6
g7
sg8
I2
sg9
I30
sg10
I77
sg11
F-0.10083198547363281
sas.