(dp0
I160
(lp1
(dp2
S'obj_LP'
p3
F12.630250164999998
sS't_RG'
p4
F-0.6314408779144287
sS'obj_IP'
p5
NsS'obj_RG'
p6
F19.891825600000026
sS'type'
p7
S'planar'
p8
sS't_solve_IP'
p9
NsS'n'
p10
I160
sS'm'
p11
I467
sS'k'
p12
I8
sS't_solve_LP'
p13
F-8.53940200805664
sa(dp14
g3
F10.889131754950501
sg4
F-0.5548548698425293
sg5
Nsg6
F17.58842200000001
sg7
g8
sg9
Nsg10
I160
sg11
I463
sg12
I8
sg13
F-10.028556108474731
sa(dp15
g3
F12.586094494220426
sg4
F-0.6042129993438721
sg5
Nsg6
F23.315073700000013
sg7
g8
sg9
Nsg10
I160
sg11
I466
sg12
I8
sg13
F-8.548540115356445
sa(dp16
g3
F11.503040185582824
sg4
F-0.6065599918365479
sg5
Nsg6
F17.0913683
sg7
g8
sg9
Nsg10
I160
sg11
I466
sg12
I8
sg13
F-8.714070081710815
sasI130
(lp17
(dp18
g3
F10.627567100000002
sg4
F-0.2360379695892334
sg5
Nsg6
F11.5381262
sg7
g8
sg9
Nsg10
I130
sg11
I375
sg12
I7
sg13
F-6.1138880252838135
sa(dp19
g3
F7.912624373863638
sg4
F-0.3033618927001953
sg5
Nsg6
F12.5033942
sg7
g8
sg9
Nsg10
I130
sg11
I373
sg12
I7
sg13
F-5.086184024810791
sa(dp20
g3
F8.973585603030305
sg4
F-0.2761108875274658
sg5
Nsg6
F13.148535800000007
sg7
g8
sg9
Nsg10
I130
sg11
I373
sg12
I7
sg13
F-4.5557310581207275
sa(dp21
g3
F9.22838160344828
sg4
F-0.3020319938659668
sg5
Nsg6
F16.927944800000002
sg7
g8
sg9
Nsg10
I130
sg11
I371
sg12
I7
sg13
F-4.420525074005127
sasI100
(lp22
(dp23
g3
F8.11256010714286
sg4
F-0.11127495765686035
sg5
Nsg6
F13.660856000000008
sg7
g8
sg9
Nsg10
I100
sg11
I285
sg12
I5
sg13
F-2.2945830821990967
sa(dp24
g3
F8.405121041847826
sg4
F-0.11658787727355957
sg5
Nsg6
F12.275636800000003
sg7
g8
sg9
Nsg10
I100
sg11
I284
sg12
I5
sg13
F-2.374553918838501
sa(dp25
g3
F9.788254750000004
sg4
F-0.10873794555664062
sg5
Nsg6
F12.972646399999999
sg7
g8
sg9
Nsg10
I100
sg11
I290
sg12
I5
sg13
F-2.5739729404449463
sa(dp26
g3
F8.03316283831169
sg4
F-0.12859106063842773
sg5
Nsg6
F16.850106300000004
sg7
g8
sg9
Nsg10
I100
sg11
I286
sg12
I5
sg13
F-2.213204860687256
sasI70
(lp27
(dp28
g3
F6.364619999999999
sg4
F-0.02979898452758789
sg5
Nsg6
F7.520188999999999
sg7
g8
sg9
Nsg10
I70
sg11
I198
sg12
I4
sg13
F-1.1573610305786133
sa(dp29
g3
F6.36554825
sg4
F-0.031042098999023438
sg5
Nsg6
F7.570258
sg7
g8
sg9
Nsg10
I70
sg11
I197
sg12
I4
sg13
F-1.133923053741455
sa(dp30
g3
F7.048093549999999
sg4
F-0.0334320068359375
sg5
Nsg6
F9.4878598
sg7
g8
sg9
Nsg10
I70
sg11
I195
sg12
I4
sg13
F-1.050394058227539
sa(dp31
g3
F8.226166454545455
sg4
F-0.037651777267456055
sg5
Nsg6
F13.109396400000001
sg7
g8
sg9
Nsg10
I70
sg11
I199
sg12
I4
sg13
F-1.0132129192352295
sasI40
(lp32
(dp33
g3
F4.929981999999999
sg4
F-0.0057871341705322266
sg5
F4.94286
sg6
F5.502038999999999
sg7
g8
sg9
F-0.29970693588256836
sg10
I40
sg11
I106
sg12
I2
sg13
F-0.24572205543518066
sa(dp34
g3
F4.202065500000001
sg4
F-0.008183956146240234
sg5
F4.4811250000000005
sg6
F5.057880000000002
sg7
g8
sg9
F-0.9463629722595215
sg10
I40
sg11
I105
sg12
I2
sg13
F-0.24749302864074707
sa(dp35
g3
F4.260619000000001
sg4
F-0.007035970687866211
sg5
F4.488842999999999
sg6
F6.101230000000001
sg7
g8
sg9
F-1.0006120204925537
sg10
I40
sg11
I104
sg12
I2
sg13
F-0.23624300956726074
sa(dp36
g3
F5.488094545454545
sg4
F-0.011390924453735352
sg5
F5.840900999999999
sg6
F7.8530859999999985
sg7
g8
sg9
F-1.4125158786773682
sg10
I40
sg11
I110
sg12
I2
sg13
F-0.3374459743499756
sasI10
(lp37
(dp38
g3
F1.65741
sg4
F-0.00015497207641601562
sg5
F1.65741
sg6
F1.65741
sg7
g8
sg9
F-0.05903792381286621
sg10
I10
sg11
I20
sg12
I1
sg13
F-0.0578761100769043
sa(dp39
g3
F1.8587099999999999
sg4
F-0.0005929470062255859
sg5
F1.8587099999999999
sg6
F1.8587099999999999
sg7
g8
sg9
F-0.08113980293273926
sg10
I10
sg11
I22
sg12
I1
sg13
F-0.06712484359741211
sa(dp40
g3
F1.914349
sg4
F-0.0002701282501220703
sg5
F1.914349
sg6
F1.914349
sg7
g8
sg9
F-0.06112790107727051
sg10
I10
sg11
I22
sg12
I1
sg13
F-0.061270952224731445
sa(dp41
g3
F3.1222265
sg4
F-0.0009560585021972656
sg5
F3.1808430000000003
sg6
F3.228273
sg7
g8
sg9
F-0.08083510398864746
sg10
I10
sg11
I21
sg12
I1
sg13
F-0.07085299491882324
sasI140
(lp42
(dp43
g3
F9.408130674999999
sg4
F-0.2959010601043701
sg5
Nsg6
F10.670593400000001
sg7
g8
sg9
Nsg10
I140
sg11
I403
sg12
I7
sg13
F-6.504473924636841
sa(dp44
g3
F9.647820097990646
sg4
F-0.4136350154876709
sg5
Nsg6
F16.368219000000003
sg7
g8
sg9
Nsg10
I140
sg11
I402
sg12
I7
sg13
F-6.5551228523254395
sa(dp45
g3
F8.861984900000003
sg4
F-0.31047511100769043
sg5
Nsg6
F9.334372400000003
sg7
g8
sg9
Nsg10
I140
sg11
I402
sg12
I7
sg13
F-6.2440080642700195
sa(dp46
g3
F10.992485100000001
sg4
F-0.3768038749694824
sg5
Nsg6
F14.890184100000003
sg7
g8
sg9
Nsg10
I140
sg11
I405
sg12
I7
sg13
F-5.957201957702637
sasI110
(lp47
(dp48
g3
F9.147558827447831
sg4
F-0.16939187049865723
sg5
Nsg6
F16.359407000000004
sg7
g8
sg9
Nsg10
I110
sg11
I315
sg12
I6
sg13
F-2.9722530841827393
sa(dp49
g3
F9.326166296923075
sg4
F-0.17268085479736328
sg5
Nsg6
F17.700534899999994
sg7
g8
sg9
Nsg10
I110
sg11
I316
sg12
I6
sg13
F-2.989696979522705
sa(dp50
g3
F9.377733875
sg4
F-0.1545250415802002
sg5
Nsg6
F13.217686999999998
sg7
g8
sg9
Nsg10
I110
sg11
I313
sg12
I6
sg13
F-2.765561103820801
sa(dp51
g3
F8.625901830729164
sg4
F-0.1780529022216797
sg5
Nsg6
F15.730415999999993
sg7
g8
sg9
Nsg10
I110
sg11
I315
sg12
I6
sg13
F-3.1717729568481445
sasI80
(lp52
(dp53
g3
F7.053854294999997
sg4
F-0.0570070743560791
sg5
Nsg6
F11.633224799999999
sg7
g8
sg9
Nsg10
I80
sg11
I225
sg12
I4
sg13
F-1.375758171081543
sa(dp54
g3
F7.40641916
sg4
F-0.059432029724121094
sg5
Nsg6
F14.828463000000001
sg7
g8
sg9
Nsg10
I80
sg11
I227
sg12
I4
sg13
F-1.3308451175689697
sa(dp55
g3
F7.409955833333333
sg4
F-0.061773061752319336
sg5
Nsg6
F12.696546999999997
sg7
g8
sg9
Nsg10
I80
sg11
I224
sg12
I4
sg13
F-1.35017991065979
sa(dp56
g3
F7.8705777
sg4
F-0.05870699882507324
sg5
Nsg6
F11.643579099999997
sg7
g8
sg9
Nsg10
I80
sg11
I227
sg12
I4
sg13
F-1.4197430610656738
sasI50
(lp57
(dp58
g3
F5.673887499999999
sg4
F-0.00966501235961914
sg5
F6.029152
sg6
F7.543596000000003
sg7
g8
sg9
F-2.938865900039673
sg10
I50
sg11
I140
sg12
I3
sg13
F-0.5646378993988037
sa(dp59
g3
F5.321407250000003
sg4
F-0.012213945388793945
sg5
F5.598978
sg6
F6.367500999999998
sg7
g8
sg9
F-2.700977087020874
sg10
I50
sg11
I135
sg12
I3
sg13
F-0.5539679527282715
sa(dp60
g3
F5.892882216666668
sg4
F-0.012850046157836914
sg5
F6.0920981
sg6
F7.227755100000002
sg7
g8
sg9
F-1.8927748203277588
sg10
I50
sg11
I138
sg12
I3
sg13
F-0.5093560218811035
sa(dp61
g3
F4.996027500000001
sg4
F-0.013519048690795898
sg5
F5.127569
sg6
F6.088419000000002
sg7
g8
sg9
F-1.5299320220947266
sg10
I50
sg11
I137
sg12
I3
sg13
F-0.5304601192474365
sasI20
(lp62
(dp63
g3
F3.929184
sg4
F-0.0009770393371582031
sg5
F4.043818
sg6
F4.953919999999999
sg7
g8
sg9
F-0.11236095428466797
sg10
I20
sg11
I49
sg12
I1
sg13
F-0.10359787940979004
sa(dp64
g3
F3.704674
sg4
F-0.001016855239868164
sg5
F3.818037999999999
sg6
F4.687521
sg7
g8
sg9
F-0.16443920135498047
sg10
I20
sg11
I50
sg12
I1
sg13
F-0.10163593292236328
sa(dp65
g3
F1.563707
sg4
F-0.00152587890625
sg5
F1.6315759999999997
sg6
F1.6873150000000001
sg7
g8
sg9
F-0.12302994728088379
sg10
I20
sg11
I48
sg12
I1
sg13
F-0.09217381477355957
sa(dp66
g3
F3.8759065000000006
sg4
F-0.0017151832580566406
sg5
F3.975808
sg6
F3.9771079999999994
sg7
g8
sg9
F-0.13772797584533691
sg10
I20
sg11
I51
sg12
I1
sg13
F-0.10428094863891602
sasI190
(lp67
(dp68
g3
F12.874847831315096
sg4
F-1.0987238883972168
sg5
Nsg6
F23.0940636
sg7
g8
sg9
Nsg10
I190
sg11
I553
sg12
I10
sg13
F-15.195913076400757
sa(dp69
g3
F14.764886567647062
sg4
F-1.0881102085113525
sg5
Nsg6
F26.577627300000007
sg7
g8
sg9
Nsg10
I190
sg11
I557
sg12
I10
sg13
F-15.586933135986328
sa(dp70
g3
F12.419824544325126
sg4
F-1.1199171543121338
sg5
Nsg6
F21.233238900000007
sg7
g8
sg9
Nsg10
I190
sg11
I552
sg12
I10
sg13
F-12.715975046157837
sa(dp71
g3
F12.906299255458052
sg4
F-1.166398048400879
sg5
Nsg6
F23.04676070000002
sg7
g8
sg9
Nsg10
I190
sg11
I554
sg12
I10
sg13
F-14.575954914093018
sasI150
(lp72
(dp73
g3
F10.788074821794876
sg4
F-0.43866896629333496
sg5
Nsg6
F16.6819614
sg7
g8
sg9
Nsg10
I150
sg11
I433
sg12
I8
sg13
F-6.738862991333008
sa(dp74
g3
F11.317913127060928
sg4
F-0.4760770797729492
sg5
Nsg6
F19.9556109
sg7
g8
sg9
Nsg10
I150
sg11
I433
sg12
I8
sg13
F-7.057837009429932
sa(dp75
g3
F10.592986489532864
sg4
F-0.47147703170776367
sg5
Nsg6
F18.31843418
sg7
g8
sg9
Nsg10
I150
sg11
I432
sg12
I8
sg13
F-6.459749937057495
sa(dp76
g3
F11.850981708098592
sg4
F-0.5569460391998291
sg5
Nsg6
F22.192735
sg7
g8
sg9
Nsg10
I150
sg11
I436
sg12
I8
sg13
F-7.228955030441284
sasI120
(lp77
(dp78
g3
F8.714246646483913
sg4
F-0.25483107566833496
sg5
Nsg6
F15.58951030000001
sg7
g8
sg9
Nsg10
I120
sg11
I341
sg12
I6
sg13
F-3.619086980819702
sa(dp79
g3
F10.190059984615381
sg4
F-0.19960689544677734
sg5
Nsg6
F17.1141471
sg7
g8
sg9
Nsg10
I120
sg11
I344
sg12
I6
sg13
F-3.737273931503296
sa(dp80
g3
F10.16923534722223
sg4
F-0.23343896865844727
sg5
Nsg6
F18.0375043
sg7
g8
sg9
Nsg10
I120
sg11
I343
sg12
I6
sg13
F-3.444132089614868
sa(dp81
g3
F10.419850666666667
sg4
F-0.2330310344696045
sg5
Nsg6
F17.472107399999985
sg7
g8
sg9
Nsg10
I120
sg11
I348
sg12
I6
sg13
F-3.513890027999878
sasI180
(lp82
(dp83
g3
F11.901614229166666
sg4
F-0.8514690399169922
sg5
Nsg6
F20.925357
sg7
g8
sg9
Nsg10
I180
sg11
I519
sg12
I9
sg13
F-13.74132513999939
sa(dp84
g3
F11.874062671649552
sg4
F-0.9475600719451904
sg5
Nsg6
F21.839420699999977
sg7
g8
sg9
Nsg10
I180
sg11
I526
sg12
I9
sg13
F-13.892247200012207
sa(dp85
g3
F12.36238071263301
sg4
F-0.929236888885498
sg5
Nsg6
F22.8116482
sg7
g8
sg9
Nsg10
I180
sg11
I527
sg12
I9
sg13
F-13.113147020339966
sa(dp86
g3
F12.703894790949937
sg4
F-0.912438154220581
sg5
Nsg6
F22.083720400000008
sg7
g8
sg9
Nsg10
I180
sg11
I527
sg12
I9
sg13
F-13.859757900238037
sasI90
(lp87
(dp88
g3
F8.651743650000002
sg4
F-0.08751797676086426
sg5
Nsg6
F16.736463799999996
sg7
g8
sg9
Nsg10
I90
sg11
I256
sg12
I5
sg13
F-1.7944188117980957
sa(dp89
g3
F7.764931482222223
sg4
F-0.08747196197509766
sg5
Nsg6
F14.05586400000001
sg7
g8
sg9
Nsg10
I90
sg11
I257
sg12
I5
sg13
F-1.818964958190918
sa(dp90
g3
F7.599101000000001
sg4
F-0.07220578193664551
sg5
Nsg6
F7.972809
sg7
g8
sg9
Nsg10
I90
sg11
I255
sg12
I5
sg13
F-1.8752200603485107
sa(dp91
g3
F8.572184422330098
sg4
F-0.09819889068603516
sg5
Nsg6
F15.436320999999994
sg7
g8
sg9
Nsg10
I90
sg11
I257
sg12
I5
sg13
F-1.807159185409546
sasI60
(lp92
(dp93
g3
F6.4249166126373645
sg4
F-0.0249330997467041
sg5
F6.869781000000001
sg6
F13.880406999999996
sg7
g8
sg9
F-9.804803133010864
sg10
I60
sg11
I168
sg12
I3
sg13
F-0.7193930149078369
sa(dp94
g3
F6.16756075
sg4
F-0.02097606658935547
sg5
F6.2789280000000005
sg6
F7.390895000000002
sg7
g8
sg9
F-1.5006089210510254
sg10
I60
sg11
I166
sg12
I3
sg13
F-0.7858309745788574
sa(dp95
g3
F6.963396024999999
sg4
F-0.023064851760864258
sg5
F7.091131300000001
sg6
F10.3378473
sg7
g8
sg9
F-5.104879140853882
sg10
I60
sg11
I167
sg12
I3
sg13
F-0.7630529403686523
sa(dp96
g3
F7.302168227272727
sg4
F-0.026899099349975586
sg5
F7.682651999999999
sg6
F11.922307
sg7
g8
sg9
F-6.136021137237549
sg10
I60
sg11
I167
sg12
I3
sg13
F-0.7026610374450684
sasI170
(lp97
(dp98
g3
F12.705987595955882
sg4
F-0.7129311561584473
sg5
Nsg6
F21.623406200000005
sg7
g8
sg9
Nsg10
I170
sg11
I494
sg12
I9
sg13
F-9.875601053237915
sa(dp99
g3
F11.969360687878778
sg4
F-0.7077999114990234
sg5
Nsg6
F19.314237999999992
sg7
g8
sg9
Nsg10
I170
sg11
I494
sg12
I9
sg13
F-9.750762939453125
sa(dp100
g3
F12.789537060789685
sg4
F-0.7898890972137451
sg5
Nsg6
F23.911773299999975
sg7
g8
sg9
Nsg10
I170
sg11
I493
sg12
I9
sg13
F-10.092642068862915
sa(dp101
g3
F12.741264192554365
sg4
F-0.7797369956970215
sg5
Nsg6
F23.6337454
sg7
g8
sg9
Nsg10
I170
sg11
I494
sg12
I9
sg13
F-10.398980140686035
sasI30
(lp102
(dp103
g3
F3.4845668000000005
sg4
F-0.003515005111694336
sg5
F3.8224108
sg6
F4.5695928
sg7
g8
sg9
F-0.5350630283355713
sg10
I30
sg11
I79
sg12
I2
sg13
F-0.15460515022277832
sa(dp104
g3
F3.7364400000000004
sg4
F-0.004062175750732422
sg5
F3.7364400000000004
sg6
F3.7364400000000004
sg7
g8
sg9
F-0.1766359806060791
sg10
I30
sg11
I80
sg12
I2
sg13
F-0.15778207778930664
sa(dp105
g3
F3.8909529999999997
sg4
F-0.003596067428588867
sg5
F3.8909529999999997
sg6
F3.8909529999999997
sg7
g8
sg9
F-0.17368197441101074
sg10
I30
sg11
I77
sg12
I2
sg13
F-0.16245198249816895
sa(dp106
g3
F4.450745
sg4
F-0.004105091094970703
sg5
F4.450745
sg6
F4.450745
sg7
g8
sg9
F-0.17160987854003906
sg10
I30
sg11
I77
sg12
I2
sg13
F-0.14725089073181152
sas.