(dp0
I100
(lp1
(dp2
S'obj_LP'
p3
F8.11256010714286
sS't_RG'
p4
F-0.1127779483795166
sS'obj_IP'
p5
F8.591011
sS'obj_RG'
p6
F13.660856000000008
sS'type'
p7
S'planar'
p8
sS't_solve_IP'
p9
F-1094.8750050067902
sS'n'
p10
I100
sS'm'
p11
I285
sS'k'
p12
I5
sS't_solve_LP'
p13
F-2.2924818992614746
sa(dp14
g3
F8.405121041847826
sg4
F-0.11723518371582031
sg5
F14.948930000000002
sg6
F12.275636800000003
sg7
g8
sg9
F-57.303056955337524
sg10
I100
sg11
I284
sg12
I5
sg13
F-2.3917291164398193
sasI70
(lp15
(dp16
g3
F6.364619999999999
sg4
F-0.029326200485229492
sg5
F6.668239000000002
sg6
F7.520188999999999
sg7
g8
sg9
F-26.74701714515686
sg10
I70
sg11
I198
sg12
I4
sg13
F-1.0991630554199219
sa(dp17
g3
F6.36554825
sg4
F-0.030609846115112305
sg5
F6.478617000000001
sg6
F7.570258
sg7
g8
sg9
F-6.367173194885254
sg10
I70
sg11
I197
sg12
I4
sg13
F-1.0933918952941895
sa(dp18
g3
F7.048093549999999
sg4
F-0.033032894134521484
sg5
F7.354713799999999
sg6
F9.4878598
sg7
g8
sg9
F-13.937665939331055
sg10
I70
sg11
I195
sg12
I4
sg13
F-1.0179409980773926
sa(dp19
g3
F8.226166454545455
sg4
F-0.037200927734375
sg5
F8.420532000000001
sg6
F13.109396400000001
sg7
g8
sg9
F-9.953849077224731
sg10
I70
sg11
I199
sg12
I4
sg13
F-1.0047390460968018
sasI40
(lp20
(dp21
g3
F4.929981999999999
sg4
F-0.005915164947509766
sg5
F4.94286
sg6
F5.502038999999999
sg7
g8
sg9
F-0.2850799560546875
sg10
I40
sg11
I106
sg12
I2
sg13
F-0.22527217864990234
sa(dp22
g3
F4.202065500000001
sg4
F-0.0057718753814697266
sg5
F4.4811250000000005
sg6
F5.057880000000002
sg7
g8
sg9
F-0.9341211318969727
sg10
I40
sg11
I105
sg12
I2
sg13
F-0.22930407524108887
sa(dp23
g3
F4.260619000000001
sg4
F-0.007046937942504883
sg5
F4.488842999999999
sg6
F6.101230000000001
sg7
g8
sg9
F-0.9849720001220703
sg10
I40
sg11
I104
sg12
I2
sg13
F-0.25666189193725586
sa(dp24
g3
F5.488094545454545
sg4
F-0.010509967803955078
sg5
F5.840900999999999
sg6
F7.8530859999999985
sg7
g8
sg9
F-1.3421070575714111
sg10
I40
sg11
I110
sg12
I2
sg13
F-0.31487083435058594
sasI10
(lp25
(dp26
g3
F1.65741
sg4
F-0.00014400482177734375
sg5
F1.65741
sg6
F1.65741
sg7
g8
sg9
F-0.046996116638183594
sg10
I10
sg11
I20
sg12
I1
sg13
F-0.045471906661987305
sa(dp27
g3
F1.8587099999999999
sg4
F-0.0007271766662597656
sg5
F1.8587099999999999
sg6
F1.8587099999999999
sg7
g8
sg9
F-0.0761411190032959
sg10
I10
sg11
I22
sg12
I1
sg13
F-0.05730104446411133
sa(dp28
g3
F1.914349
sg4
F-0.0007259845733642578
sg5
F1.914349
sg6
F1.914349
sg7
g8
sg9
F-0.07129812240600586
sg10
I10
sg11
I22
sg12
I1
sg13
F-0.06026411056518555
sa(dp29
g3
F3.1222265
sg4
F-0.0011279582977294922
sg5
F3.1808430000000003
sg6
F3.228273
sg7
g8
sg9
F-0.06928801536560059
sg10
I10
sg11
I21
sg12
I1
sg13
F-0.0587921142578125
sasI80
(lp30
(dp31
g3
F7.053854294999997
sg4
F-0.05690598487854004
sg5
F7.373060799999999
sg6
F11.633224799999999
sg7
g8
sg9
F-69.71616411209106
sg10
I80
sg11
I225
sg12
I4
sg13
F-1.3227040767669678
sa(dp32
g3
F7.40641916
sg4
F-0.058953046798706055
sg5
F7.710942
sg6
F14.828463000000001
sg7
g8
sg9
F-70.27320098876953
sg10
I80
sg11
I227
sg12
I4
sg13
F-1.2994189262390137
sa(dp33
g3
F7.409955833333333
sg4
F-0.061312198638916016
sg5
F7.623409999999999
sg6
F12.696546999999997
sg7
g8
sg9
F-80.93506288528442
sg10
I80
sg11
I224
sg12
I4
sg13
F-1.3054070472717285
sa(dp34
g3
F7.8705777
sg4
F-0.05854678153991699
sg5
F8.196197099999997
sg6
F11.643579099999997
sg7
g8
sg9
F-37.82647085189819
sg10
I80
sg11
I227
sg12
I4
sg13
F-1.4160571098327637
sasI50
(lp35
(dp36
g3
F5.673887499999999
sg4
F-0.009907960891723633
sg5
F6.029152
sg6
F7.543596000000003
sg7
g8
sg9
F-2.970426082611084
sg10
I50
sg11
I140
sg12
I3
sg13
F-0.5752451419830322
sa(dp37
g3
F5.321407250000003
sg4
F-0.011703014373779297
sg5
F5.598978
sg6
F6.367500999999998
sg7
g8
sg9
F-2.6933140754699707
sg10
I50
sg11
I135
sg12
I3
sg13
F-0.5461909770965576
sa(dp38
g3
F5.892882216666668
sg4
F-0.012810945510864258
sg5
F6.0920981
sg6
F7.227755100000002
sg7
g8
sg9
F-1.8749079704284668
sg10
I50
sg11
I138
sg12
I3
sg13
F-0.5067539215087891
sa(dp39
g3
F4.996027500000001
sg4
F-0.013468027114868164
sg5
F5.127569
sg6
F6.088419000000002
sg7
g8
sg9
F-1.5405850410461426
sg10
I50
sg11
I137
sg12
I3
sg13
F-0.4997119903564453
sasI20
(lp40
(dp41
g3
F3.929184
sg4
F-0.0009789466857910156
sg5
F4.043818
sg6
F4.953919999999999
sg7
g8
sg9
F-0.10075783729553223
sg10
I20
sg11
I49
sg12
I1
sg13
F-0.09286999702453613
sa(dp42
g3
F3.704674
sg4
F-0.0012049674987792969
sg5
F3.818037999999999
sg6
F4.687521
sg7
g8
sg9
F-0.15271592140197754
sg10
I20
sg11
I50
sg12
I1
sg13
F-0.08751106262207031
sa(dp43
g3
F1.563707
sg4
F-0.0010471343994140625
sg5
F1.6315759999999997
sg6
F1.6873150000000001
sg7
g8
sg9
F-0.09656596183776855
sg10
I20
sg11
I48
sg12
I1
sg13
F-0.07771611213684082
sa(dp44
g3
F3.8759065000000006
sg4
F-0.0012700557708740234
sg5
F3.975808
sg6
F3.9771079999999994
sg7
g8
sg9
F-0.11397790908813477
sg10
I20
sg11
I51
sg12
I1
sg13
F-0.08236384391784668
sasI90
(lp45
(dp46
g3
F8.651743650000002
sg4
F-0.08444094657897949
sg5
F9.174618
sg6
F16.736463799999996
sg7
g8
sg9
F-398.12181305885315
sg10
I90
sg11
I256
sg12
I5
sg13
F-1.7501201629638672
sa(dp47
g3
F7.764931482222223
sg4
F-0.08699297904968262
sg5
F7.833553600000001
sg6
F14.05586400000001
sg7
g8
sg9
F-64.08528995513916
sg10
I90
sg11
I257
sg12
I5
sg13
F-1.8464269638061523
sa(dp48
g3
F7.599101000000001
sg4
F-0.0716850757598877
sg5
F7.706251
sg6
F7.972809
sg7
g8
sg9
F-13.931701183319092
sg10
I90
sg11
I255
sg12
I5
sg13
F-1.8823111057281494
sa(dp49
g3
F8.572184422330098
sg4
F-0.09817290306091309
sg5
F8.854897999999999
sg6
F15.436320999999994
sg7
g8
sg9
F-91.71081614494324
sg10
I90
sg11
I257
sg12
I5
sg13
F-1.7717430591583252
sasI60
(lp50
(dp51
g3
F6.4249166126373645
sg4
F-0.024992942810058594
sg5
F6.869781000000001
sg6
F13.880406999999996
sg7
g8
sg9
F-10.027017831802368
sg10
I60
sg11
I168
sg12
I3
sg13
F-0.682506799697876
sa(dp52
g3
F6.16756075
sg4
F-0.02106189727783203
sg5
F6.2789280000000005
sg6
F7.390895000000002
sg7
g8
sg9
F-1.512354850769043
sg10
I60
sg11
I166
sg12
I3
sg13
F-0.7526590824127197
sa(dp53
g3
F6.963396024999999
sg4
F-0.022856950759887695
sg5
F7.091131300000001
sg6
F10.3378473
sg7
g8
sg9
F-5.104249954223633
sg10
I60
sg11
I167
sg12
I3
sg13
F-0.7974739074707031
sa(dp54
g3
F7.302168227272727
sg4
F-0.02700018882751465
sg5
F7.682651999999999
sg6
F11.922307
sg7
g8
sg9
F-6.17977499961853
sg10
I60
sg11
I167
sg12
I3
sg13
F-0.6710050106048584
sasI30
(lp55
(dp56
g3
F3.4845668000000005
sg4
F-0.002682924270629883
sg5
F3.8224108
sg6
F4.5695928
sg7
g8
sg9
F-0.5114009380340576
sg10
I30
sg11
I79
sg12
I2
sg13
F-0.15412020683288574
sa(dp57
g3
F3.7364400000000004
sg4
F-0.002892017364501953
sg5
F3.7364400000000004
sg6
F3.7364400000000004
sg7
g8
sg9
F-0.15737295150756836
sg10
I30
sg11
I80
sg12
I2
sg13
F-0.14005208015441895
sa(dp58
g3
F3.8909529999999997
sg4
F-0.002933025360107422
sg5
F3.8909529999999997
sg6
F3.8909529999999997
sg7
g8
sg9
F-0.15577292442321777
sg10
I30
sg11
I77
sg12
I2
sg13
F-0.1352231502532959
sa(dp59
g3
F4.450745
sg4
F-0.003117084503173828
sg5
F4.450745
sg6
F4.450745
sg7
g8
sg9
F-0.1529099941253662
sg10
I30
sg11
I77
sg12
I2
sg13
F-0.13352489471435547
sas.