(dp0
I40
(lp1
(dp2
S'time_RG'
p3
F0.014930963516235352
sS'obj_LP'
p4
F59.0
sS'obj_IP'
p5
F63.0
sS'obj_RG'
p6
I70
sS'time_IP'
p7
F1.1793599128723145
sS'type'
p8
S'grid'
p9
sS'k'
p10
I4
sS'm'
p11
I146
sS'time_LP'
p12
F0.3766171932220459
sS'n'
p13
I44
sa(dp14
g3
F0.01903700828552246
sg4
F41.0
sg5
F41.0
sg6
I41
sg7
F0.4041919708251953
sg8
g9
sg10
I4
sg11
I139
sg12
F0.49117493629455566
sg13
I44
sa(dp15
g3
F0.018012046813964844
sg4
F50.0
sg5
F57.0
sg6
I59
sg7
F0.8294439315795898
sg8
g9
sg10
I4
sg11
I144
sg12
F0.3753530979156494
sg13
I44
sa(dp16
g3
F0.021271944046020508
sg4
F62.5
sg5
F70.0
sg6
I75
sg7
F0.9206559658050537
sg8
g9
sg10
I4
sg11
I145
sg12
F0.37265491485595703
sg13
I44
sa(dp17
g3
F0.019862890243530273
sg4
F52.0
sg5
F58.0
sg6
I62
sg7
F1.0194919109344482
sg8
g9
sg10
I4
sg11
I140
sg12
F0.3764162063598633
sg13
I44
sasI25
(lp18
(dp19
g3
F0.00341796875
sg4
F39.5
sg5
F40.0
sg6
I42
sg7
F0.21541213989257812
sg8
g9
sg10
I4
sg11
I88
sg12
F0.14980697631835938
sg13
I29
sa(dp20
g3
F0.003983974456787109
sg4
F35.0
sg5
F37.0
sg6
I43
sg7
F0.31666111946105957
sg8
g9
sg10
I4
sg11
I86
sg12
F0.14241695404052734
sg13
I29
sa(dp21
g3
F0.00465703010559082
sg4
F42.0
sg5
F45.0
sg6
I54
sg7
F0.2539849281311035
sg8
g9
sg10
I4
sg11
I88
sg12
F0.3972511291503906
sg13
I29
sa(dp22
g3
F0.005939960479736328
sg4
F27.5
sg5
F32.0
sg6
I38
sg7
F0.3030660152435303
sg8
g9
sg10
I4
sg11
I85
sg12
F0.1466219425201416
sg13
I29
sa(dp23
g3
F0.00671696662902832
sg4
F34.0
sg5
F36.0
sg6
I41
sg7
F0.23176002502441406
sg8
g9
sg10
I4
sg11
I86
sg12
F0.14174389839172363
sg13
I29
sasI85
(lp24
(dp25
g3
F0.13130903244018555
sg4
F98.0
sg5
F113.0
sg6
I113
sg7
F139.85425209999084
sg8
g9
sg10
I4
sg11
I310
sg12
F6.377480983734131
sg13
I89
sa(dp26
g3
F0.12972593307495117
sg4
F97.5
sg5
F112.0
sg6
I127
sg7
F61.11090707778931
sg8
g9
sg10
I4
sg11
I309
sg12
F4.30601692199707
sg13
I89
sa(dp27
g3
F0.1582348346710205
sg4
F117.5
sg5
F128.0
sg6
I142
sg7
F190.51629519462585
sg8
g9
sg10
I4
sg11
I317
sg12
F4.701479911804199
sg13
I89
sa(dp28
g3
F0.14437603950500488
sg4
F113.0
sg5
F125.0
sg6
I139
sg7
F59.198729038238525
sg8
g9
sg10
I4
sg11
I317
sg12
F2.6352250576019287
sg13
I89
sa(dp29
g3
F0.15039992332458496
sg4
F117.0
sg5
F130.0
sg6
I139
sg7
F50.0151948928833
sg8
g9
sg10
I4
sg11
I319
sg12
F3.1325571537017822
sg13
I89
sasI70
(lp30
(dp31
g3
F0.07482409477233887
sg4
F92.0
sg5
F104.0
sg6
I114
sg7
F43.93378400802612
sg8
g9
sg10
I4
sg11
I257
sg12
F2.2960169315338135
sg13
I74
sa(dp32
g3
F0.07614779472351074
sg4
F84.5
sg5
F98.0
sg6
I109
sg7
F22.952184200286865
sg8
g9
sg10
I4
sg11
I253
sg12
F2.120100975036621
sg13
I74
sa(dp33
g3
F0.0789499282836914
sg4
F103.0
sg5
F118.0
sg6
I134
sg7
F12.552089929580688
sg8
g9
sg10
I4
sg11
I264
sg12
F1.8681130409240723
sg13
I74
sa(dp34
g3
F0.09493088722229004
sg4
F105.0
sg5
F112.0
sg6
I130
sg7
F79.16498112678528
sg8
g9
sg10
I4
sg11
I262
sg12
F1.557136058807373
sg13
I74
sa(dp35
g3
F0.08874297142028809
sg4
F96.0
sg5
F113.0
sg6
I121
sg7
F23.896064043045044
sg8
g9
sg10
I4
sg11
I259
sg12
F1.7406501770019531
sg13
I74
sasI55
(lp36
(dp37
g3
F0.037220001220703125
sg4
F64.5
sg5
F74.0
sg6
I80
sg7
F6.111845016479492
sg8
g9
sg10
I4
sg11
I199
sg12
F0.9324429035186768
sg13
I59
sa(dp38
g3
F0.041213035583496094
sg4
F70.5
sg5
F76.0
sg6
I83
sg7
F7.1970908641815186
sg8
g9
sg10
I4
sg11
I202
sg12
F0.7629151344299316
sg13
I59
sa(dp39
g3
F0.0760798454284668
sg4
F66.5
sg5
F71.0
sg6
I88
sg7
F4.225083112716675
sg8
g9
sg10
I4
sg11
I198
sg12
F1.0413968563079834
sg13
I59
sa(dp40
g3
F0.047508955001831055
sg4
F53.0
sg5
F63.0
sg6
I70
sg7
F12.813238143920898
sg8
g9
sg10
I4
sg11
I194
sg12
F0.7948808670043945
sg13
I59
sa(dp41
g3
F0.04897713661193848
sg4
F90.0
sg5
F97.0
sg6
I100
sg7
F3.6626088619232178
sg8
g9
sg10
I4
sg11
I207
sg12
F0.8271851539611816
sg13
I59
sas.