(dp0
I40
(lp1
(dp2
S'time_RG'
p3
F1492453888.089405
sS'obj_LP'
p4
F49.0
sS'obj_IP'
p5
F55.0
sS'obj_RG'
p6
I57
sS'time_IP'
p7
F0.931689977645874
sS'type'
p8
S'grid'
p9
sS'k'
p10
I4
sS'm'
p11
I142
sS'time_LP'
p12
F0.6126019954681396
sS'n'
p13
I44
sa(dp14
g3
F1492453889.499083
sg4
F45.5
sg5
F50.0
sg6
I59
sg7
F0.9242258071899414
sg8
g9
sg10
I4
sg11
I139
sg12
F0.46584200859069824
sg13
I44
sa(dp15
g3
F1492453891.107694
sg4
F46.5
sg5
F51.0
sg6
I53
sg7
F1.1886839866638184
sg8
g9
sg10
I4
sg11
I139
sg12
F0.39910292625427246
sg13
I44
sa(dp16
g3
F1492453893.067239
sg4
F55.5
sg5
F64.0
sg6
I74
sg7
F1.546661138534546
sg8
g9
sg10
I4
sg11
I143
sg12
F0.3899068832397461
sg13
I44
sa(dp17
g3
F1492453894.444773
sg4
F35.5
sg5
F41.0
sg6
I47
sg7
F0.9620428085327148
sg8
g9
sg10
I4
sg11
I135
sg12
F0.39043307304382324
sg13
I44
sasI25
(lp18
(dp19
g3
F1492453884.692497
sg4
F25.5
sg5
F28.0
sg6
I29
sg7
F0.2752518653869629
sg8
g9
sg10
I4
sg11
I83
sg12
F0.32666611671447754
sg13
I29
sa(dp20
g3
F1492453885.187298
sg4
F36.0
sg5
F43.0
sg6
I44
sg7
F0.3368871212005615
sg8
g9
sg10
I4
sg11
I87
sg12
F0.15307998657226562
sg13
I29
sa(dp21
g3
F1492453885.615885
sg4
F38.0
sg5
F39.0
sg6
I39
sg7
F0.23571300506591797
sg8
g9
sg10
I4
sg11
I87
sg12
F0.18648695945739746
sg13
I29
sa(dp22
g3
F1492453886.085659
sg4
F31.0
sg5
F34.0
sg6
I34
sg7
F0.2964060306549072
sg8
g9
sg10
I4
sg11
I85
sg12
F0.16599798202514648
sg13
I29
sa(dp23
g3
F1492453886.526878
sg4
F35.0
sg5
F36.0
sg6
I36
sg7
F0.26816606521606445
sg8
g9
sg10
I4
sg11
I86
sg12
F0.16511893272399902
sg13
I29
sasI85
(lp24
(dp25
g3
F1492454328.237073
sg4
F124.0
sg5
F141.0
sg6
I156
sg7
F110.28183102607727
sg8
g9
sg10
I4
sg11
I316
sg12
F2.3367459774017334
sg13
I89
sa(dp26
g3
F1492454360.340764
sg4
F99.0
sg5
F104.0
sg6
I115
sg7
F27.30768895149231
sg8
g9
sg10
I4
sg11
I313
sg12
F4.646257162094116
sg13
I89
sa(dp27
g3
F1492454422.819965
sg4
F124.5
sg5
F140.0
sg6
I166
sg7
F58.811954975128174
sg8
g9
sg10
I4
sg11
I317
sg12
F3.531981945037842
sg13
I89
sa(dp28
g3
F1492454462.019485
sg4
F116.5
sg5
F133.0
sg6
I152
sg7
F35.617406129837036
sg8
g9
sg10
I4
sg11
I315
sg12
F3.434448003768921
sg13
I89
sa(dp29
g3
F1492454514.475358
sg4
F140.5
sg5
F153.0
sg6
I167
sg7
F49.845523834228516
sg8
g9
sg10
I4
sg11
I327
sg12
F2.4588840007781982
sg13
I89
sasI70
(lp30
(dp31
g3
F1492453969.810097
sg4
F83.0
sg5
F92.0
sg6
I111
sg7
F14.851899862289429
sg8
g9
sg10
I4
sg11
I256
sg12
F3.464736223220825
sg13
I74
sa(dp32
g3
F1492454020.953099
sg4
F92.0
sg5
F101.0
sg6
I112
sg7
F48.294432163238525
sg8
g9
sg10
I4
sg11
I258
sg12
F2.7638099193573
sg13
I74
sa(dp33
g3
F1492454039.759881
sg4
F93.5
sg5
F107.0
sg6
I115
sg7
F17.295958995819092
sg8
g9
sg10
I4
sg11
I257
sg12
F1.42209792137146
sg13
I74
sa(dp34
g3
F1492454049.59688
sg4
F90.0
sg5
F99.0
sg6
I124
sg7
F7.936974048614502
sg8
g9
sg10
I4
sg11
I258
sg12
F1.8053028583526611
sg13
I74
sa(dp35
g3
F1492454215.479252
sg4
F89.0
sg5
F95.0
sg6
I106
sg7
F163.9143509864807
sg8
g9
sg10
I4
sg11
I258
sg12
F1.8636767864227295
sg13
I74
sasI55
(lp36
(dp37
g3
F1492453900.195617
sg4
F74.0
sg5
F80.0
sg6
I90
sg7
F4.490203142166138
sg8
g9
sg10
I4
sg11
I200
sg12
F1.2155168056488037
sg13
I59
sa(dp38
g3
F1492453904.790296
sg4
F80.5
sg5
F87.0
sg6
I90
sg7
F3.6806859970092773
sg8
g9
sg10
I4
sg11
I201
sg12
F0.8706629276275635
sg13
I59
sa(dp39
g3
F1492453908.352758
sg4
F57.5
sg5
F59.0
sg6
I80
sg7
F2.557080030441284
sg8
g9
sg10
I4
sg11
I199
sg12
F0.9566500186920166
sg13
I59
sa(dp40
g3
F1492453939.764736
sg4
F64.5
sg5
F74.0
sg6
I87
sg7
F30.322911977767944
sg8
g9
sg10
I4
sg11
I197
sg12
F0.9918339252471924
sg13
I59
sa(dp41
g3
F1492453951.412561
sg4
F73.0
sg5
F79.0
sg6
I84
sg7
F10.500699996948242
sg8
g9
sg10
I4
sg11
I202
sg12
F1.0925719738006592
sg13
I59
sas.