(dp0
F0.5
(lp1
(dp2
S'obj_LP'
p3
F281.6389496717723
sS'obj_RG'
p4
I490
sS'type'
p5
S'rand'
p6
sS'm'
p7
I635
sS'k'
p8
I25
sS'n'
p9
I50
sS't_solve_RG'
p10
F0.5614321231842041
sS't_solve_LP'
p11
F10.828912019729614
sa(dp12
g3
F263.0
sg4
I263
sg5
g6
sg7
I599
sg8
I25
sg9
I50
sg10
F0.22803592681884766
sg11
F13.837985038757324
sa(dp13
g3
F266.0
sg4
I266
sg5
g6
sg7
I600
sg8
I25
sg9
I50
sg10
F0.22983384132385254
sg11
F15.72205400466919
sa(dp14
g3
F258.0
sg4
I258
sg5
g6
sg7
I588
sg8
I25
sg9
I50
sg10
F0.22124314308166504
sg11
F14.496029138565063
sa(dp15
g3
F272.00000000000006
sg4
I272
sg5
g6
sg7
I625
sg8
I25
sg9
I50
sg10
F0.24859213829040527
sg11
F13.379101991653442
sa(dp16
g3
F275.69276981450275
sg4
I472
sg5
g6
sg7
I625
sg8
I25
sg9
I50
sg10
F0.5244958400726318
sg11
F9.437480926513672
sa(dp17
g3
F266.0
sg4
I266
sg5
g6
sg7
I608
sg8
I25
sg9
I50
sg10
F0.23062801361083984
sg11
F14.750603914260864
sa(dp18
g3
F277.0269230769232
sg4
I463
sg5
g6
sg7
I622
sg8
I25
sg9
I50
sg10
F0.7408888339996338
sg11
F9.244554042816162
sasF1.0
(lp19
(dp20
g3
F625.0
sg4
I917
sg5
g6
sg7
I1225
sg8
I25
sg9
I50
sg10
F1.17130708694458
sg11
F18.07803702354431
sa(dp21
g3
F625.0
sg4
I917
sg5
g6
sg7
I1225
sg8
I25
sg9
I50
sg10
F1.2038731575012207
sg11
F13.308719873428345
sa(dp22
g3
F625.0
sg4
I917
sg5
g6
sg7
I1225
sg8
I25
sg9
I50
sg10
F1.5850820541381836
sg11
F13.120764017105103
sa(dp23
g3
F625.0
sg4
I917
sg5
g6
sg7
I1225
sg8
I25
sg9
I50
sg10
F1.0565040111541748
sg11
F12.587406158447266
sa(dp24
g3
F625.0
sg4
I917
sg5
g6
sg7
I1225
sg8
I25
sg9
I50
sg10
F1.2829198837280273
sg11
F10.700130224227905
sa(dp25
g3
F625.0
sg4
I917
sg5
g6
sg7
I1225
sg8
I25
sg9
I50
sg10
F1.1218130588531494
sg11
F10.612453937530518
sa(dp26
g3
F625.0
sg4
I917
sg5
g6
sg7
I1225
sg8
I25
sg9
I50
sg10
F1.1980350017547607
sg11
F11.88579797744751
sa(dp27
g3
F625.0
sg4
I917
sg5
g6
sg7
I1225
sg8
I25
sg9
I50
sg10
F1.5091419219970703
sg11
F10.924274921417236
sasF0.2
(lp28
(dp29
g3
F95.0
sg4
I95
sg5
g6
sg7
I254
sg8
I25
sg9
I50
sg10
F0.06771087646484375
sg11
F6.056343078613281
sa(dp30
g3
F88.12934158197086
sg4
I167
sg5
g6
sg7
I233
sg8
I25
sg9
I50
sg10
F0.17339396476745605
sg11
F4.75506591796875
sa(dp31
g3
F79.0
sg4
I79
sg5
g6
sg7
I217
sg8
I25
sg9
I50
sg10
F0.05718398094177246
sg11
F6.421226978302002
sa(dp32
g3
F93.26666666666661
sg4
I188
sg5
g6
sg7
I248
sg8
I25
sg9
I50
sg10
F0.1907958984375
sg11
F4.719733953475952
sa(dp33
g3
F91.91836089750343
sg4
I181
sg5
g6
sg7
I240
sg8
I25
sg9
I50
sg10
F0.17365717887878418
sg11
F3.323815107345581
sa(dp34
g3
F101.59999999999998
sg4
I203
sg5
g6
sg7
I262
sg8
I25
sg9
I50
sg10
F0.18378996849060059
sg11
F4.942523002624512
sa(dp35
g3
F108.99999999999996
sg4
I109
sg5
g6
sg7
I277
sg8
I25
sg9
I50
sg10
F0.07489800453186035
sg11
F7.556827068328857
sa(dp36
g3
F95.10442192733281
sg4
I190
sg5
g6
sg7
I258
sg8
I25
sg9
I50
sg10
F0.20517897605895996
sg11
F4.201882839202881
sasF0.4
(lp37
(dp38
g3
F208.0
sg4
I208
sg5
g6
sg7
I497
sg8
I25
sg9
I50
sg10
F0.16789984703063965
sg11
F11.900990962982178
sa(dp39
g3
F204.0
sg4
I204
sg5
g6
sg7
I481
sg8
I25
sg9
I50
sg10
F0.1606149673461914
sg11
F12.37706995010376
sa(dp40
g3
F213.54545454545487
sg4
I378
sg5
g6
sg7
I494
sg8
I25
sg9
I50
sg10
F0.3429410457611084
sg11
F9.155736923217773
sa(dp41
g3
F212.0
sg4
I212
sg5
g6
sg7
I501
sg8
I25
sg9
I50
sg10
F0.17098116874694824
sg11
F12.42599892616272
sa(dp42
g3
F213.0
sg4
I213
sg5
g6
sg7
I496
sg8
I25
sg9
I50
sg10
F0.1742839813232422
sg11
F13.50531792640686
sa(dp43
g3
F212.0
sg4
I212
sg5
g6
sg7
I498
sg8
I25
sg9
I50
sg10
F0.16895294189453125
sg11
F12.26450800895691
sa(dp44
g3
F214.4305358948433
sg4
I365
sg5
g6
sg7
I503
sg8
I25
sg9
I50
sg10
F0.5825130939483643
sg11
F7.519421815872192
sa(dp45
g3
F198.0
sg4
I198
sg5
g6
sg7
I471
sg8
I25
sg9
I50
sg10
F0.15555095672607422
sg11
F14.598022937774658
sasF0.8
(lp46
(dp47
g3
F462.0
sg4
I462
sg5
g6
sg7
I970
sg8
I25
sg9
I50
sg10
F0.39517903327941895
sg11
F18.430021047592163
sa(dp48
g3
F453.0
sg4
I453
sg5
g6
sg7
I957
sg8
I25
sg9
I50
sg10
F0.401231050491333
sg11
F22.3441379070282
sa(dp49
g3
F478.0
sg4
I478
sg5
g6
sg7
I1002
sg8
I25
sg9
I50
sg10
F0.5381219387054443
sg11
F23.38227891921997
sa(dp50
g3
F477.0
sg4
I477
sg5
g6
sg7
I1000
sg8
I25
sg9
I50
sg10
F0.562100887298584
sg11
F22.242465019226074
sa(dp51
g3
F471.0
sg4
I471
sg5
g6
sg7
I997
sg8
I25
sg9
I50
sg10
F0.5223798751831055
sg11
F18.255250930786133
sa(dp52
g3
F466.4347826086959
sg4
I733
sg5
g6
sg7
I972
sg8
I25
sg9
I50
sg10
F1.195479154586792
sg11
F11.094717979431152
sa(dp53
g3
F487.0
sg4
I487
sg5
g6
sg7
I1014
sg8
I25
sg9
I50
sg10
F0.41533780097961426
sg11
F20.691264152526855
sa(dp54
g3
F465.0
sg4
I465
sg5
g6
sg7
I979
sg8
I25
sg9
I50
sg10
F0.4886760711669922
sg11
F19.692378044128418
sasF0.30000000000000004
(lp55
(dp56
g3
F132.0
sg4
I132
sg5
g6
sg7
I351
sg8
I25
sg9
I50
sg10
F0.10214710235595703
sg11
F8.783982038497925
sa(dp57
g3
F156.66666666666657
sg4
I288
sg5
g6
sg7
I375
sg8
I25
sg9
I50
sg10
F0.34807896614074707
sg11
F6.05821418762207
sa(dp58
g3
F154.75915458343576
sg4
I283
sg5
g6
sg7
I372
sg8
I25
sg9
I50
sg10
F0.35884594917297363
sg11
F5.584468126296997
sa(dp59
g3
F149.0
sg4
I149
sg5
g6
sg7
I364
sg8
I25
sg9
I50
sg10
F0.10687899589538574
sg11
F8.533838033676147
sa(dp60
g3
F151.0
sg4
I151
sg5
g6
sg7
I387
sg8
I25
sg9
I50
sg10
F0.12356114387512207
sg11
F9.235402822494507
sa(dp61
g3
F151.70521707406056
sg4
I284
sg5
g6
sg7
I368
sg8
I25
sg9
I50
sg10
F0.353546142578125
sg11
F5.925304889678955
sa(dp62
g3
F141.0
sg4
I141
sg5
g6
sg7
I353
sg8
I25
sg9
I50
sg10
F0.10293006896972656
sg11
F9.736579895019531
sa(dp63
g3
F137.99999999999997
sg4
I138
sg5
g6
sg7
I362
sg8
I25
sg9
I50
sg10
F0.10679388046264648
sg11
F11.470319032669067
sasF0.6
(lp64
(dp65
g3
F325.0
sg4
I325
sg5
g6
sg7
I725
sg8
I25
sg9
I50
sg10
F0.3103458881378174
sg11
F17.60779905319214
sa(dp66
g3
F343.0534759358289
sg4
I566
sg5
g6
sg7
I751
sg8
I25
sg9
I50
sg10
F0.8391938209533691
sg11
F10.395039081573486
sa(dp67
g3
F339.0
sg4
I339
sg5
g6
sg7
I745
sg8
I25
sg9
I50
sg10
F0.30582189559936523
sg11
F18.908565998077393
sa(dp68
g3
F330.0
sg4
I330
sg5
g6
sg7
I728
sg8
I25
sg9
I50
sg10
F0.2978839874267578
sg11
F16.142531156539917
sa(dp69
g3
F337.0
sg4
I337
sg5
g6
sg7
I745
sg8
I25
sg9
I50
sg10
F0.32846593856811523
sg11
F18.97441792488098
sa(dp70
g3
F337.0
sg4
I337
sg5
g6
sg7
I747
sg8
I25
sg9
I50
sg10
F0.3300909996032715
sg11
F19.443520069122314
sa(dp71
g3
F346.0
sg4
I346
sg5
g6
sg7
I759
sg8
I25
sg9
I50
sg10
F0.3415532112121582
sg11
F18.082181215286255
sa(dp72
g3
F325.0
sg4
I325
sg5
g6
sg7
I716
sg8
I25
sg9
I50
sg10
F0.298145055770874
sg11
F16.723505973815918
sasF0.1
(lp73
(dp74
g3
F32.0
sg4
I58
sg5
g6
sg7
I109
sg8
I25
sg9
I50
sg10
F0.04285693168640137
sg11
F1.8419570922851562
sa(dp75
g3
F41.21052631578948
sg4
I89
sg5
g6
sg7
I128
sg8
I25
sg9
I50
sg10
F0.0836951732635498
sg11
F2.8823108673095703
sa(dp76
g3
F26.5
sg4
I51
sg5
g6
sg7
I94
sg8
I25
sg9
I50
sg10
F0.015232086181640625
sg11
F1.095703125
sa(dp77
g3
F35.33009708737864
sg4
I80
sg5
g6
sg7
I118
sg8
I25
sg9
I50
sg10
F0.06140398979187012
sg11
F1.549997091293335
sa(dp78
g3
F31.999999999999996
sg4
I76
sg5
g6
sg7
I112
sg8
I25
sg9
I50
sg10
F0.054975032806396484
sg11
F2.544611930847168
sa(dp79
g3
F29.666666666666654
sg4
I46
sg5
g6
sg7
I108
sg8
I25
sg9
I50
sg10
F0.03864908218383789
sg11
F2.834839105606079
sa(dp80
g3
F37.884615384615394
sg4
I88
sg5
g6
sg7
I125
sg8
I25
sg9
I50
sg10
F0.07673811912536621
sg11
F2.2465431690216064
sa(dp81
g3
F36.00000000000001
sg4
I53
sg5
g6
sg7
I119
sg8
I25
sg9
I50
sg10
F0.039652109146118164
sg11
F2.614251136779785
sasF0.9
(lp82
(dp83
g3
F539.0
sg4
I539
sg5
g6
sg7
I1110
sg8
I25
sg9
I50
sg10
F0.358137845993042
sg11
F19.52037000656128
sa(dp84
g3
F522.0
sg4
I522
sg5
g6
sg7
I1074
sg8
I25
sg9
I50
sg10
F0.6315610408782959
sg11
F16.552605867385864
sa(dp85
g3
F532.0
sg4
I532
sg5
g6
sg7
I1091
sg8
I25
sg9
I50
sg10
F0.29962801933288574
sg11
F23.219083070755005
sa(dp86
g3
F536.3333333333334
sg4
I669
sg5
g6
sg7
I1098
sg8
I25
sg9
I50
sg10
F0.4493408203125
sg11
F16.785561084747314
sa(dp87
g3
F532.0
sg4
I532
sg5
g6
sg7
I1098
sg8
I25
sg9
I50
sg10
F0.551616907119751
sg11
F18.88526701927185
sa(dp88
g3
F536.0
sg4
I536
sg5
g6
sg7
I1099
sg8
I25
sg9
I50
sg10
F0.47745203971862793
sg11
F20.822312116622925
sa(dp89
g3
F548.0
sg4
I548
sg5
g6
sg7
I1119
sg8
I25
sg9
I50
sg10
F0.29166197776794434
sg11
F22.42395305633545
sa(dp90
g3
F544.0
sg4
I544
sg5
g6
sg7
I1112
sg8
I25
sg9
I50
sg10
F0.5833890438079834
sg11
F22.072729110717773
sasF0.7000000000000001
(lp91
(dp92
g3
F396.0
sg4
I396
sg5
g6
sg7
I857
sg8
I25
sg9
I50
sg10
F0.37853002548217773
sg11
F21.248576879501343
sa(dp93
g3
F402.0
sg4
I402
sg5
g6
sg7
I863
sg8
I25
sg9
I50
sg10
F0.30701112747192383
sg11
F23.545819997787476
sa(dp94
g3
F387.0
sg4
I387
sg5
g6
sg7
I840
sg8
I25
sg9
I50
sg10
F0.40144801139831543
sg11
F20.77954387664795
sa(dp95
g3
F391.0
sg4
I391
sg5
g6
sg7
I836
sg8
I25
sg9
I50
sg10
F0.3984341621398926
sg11
F19.4934139251709
sa(dp96
g3
F388.0
sg4
I388
sg5
g6
sg7
I841
sg8
I25
sg9
I50
sg10
F0.40840721130371094
sg11
F19.17962908744812
sa(dp97
g3
F411.0
sg4
I411
sg5
g6
sg7
I882
sg8
I25
sg9
I50
sg10
F0.37473511695861816
sg11
F19.47605800628662
sa(dp98
g3
F418.7063106796118
sg4
I660
sg5
g6
sg7
I890
sg8
I25
sg9
I50
sg10
F0.9712820053100586
sg11
F10.208297967910767
sa(dp99
g3
F390.0
sg4
I390
sg5
g6
sg7
I842
sg8
I25
sg9
I50
sg10
F0.37135910987854004
sg11
F20.534090995788574
sas.