(dp0
F0.1
(lp1
(dp2
S'obj_LP'
p3
F625.0
sS'obj_RG'
p4
I917
sS'type'
p5
S'rand'
p6
sS'm'
p7
I1225
sS'k'
p8
I25
sS'n'
p9
I50
sS't_solve_RG'
p10
F1.0960299968719482
sS't_solve_LP'
p11
F10.963613033294678
sas.