(dp0
F0.5
(lp1
(dp2
S'obj_LP'
p3
F291.0
sS'obj_RG'
p4
I291
sS'type'
p5
S'rand'
p6
sS'm'
p7
I655
sS'k'
p8
I25
sS'n'
p9
I50
sS't_solve_RG'
p10
F0.26703596115112305
sS't_solve_LP'
p11
F16.845006942749023
sa(dp12
g3
F285.0
sg4
I285
sg5
g6
sg7
I639
sg8
I25
sg9
I50
sg10
F0.24892687797546387
sg11
F15.438894033432007
sa(dp13
g3
F268.0
sg4
I268
sg5
g6
sg7
I617
sg8
I25
sg9
I50
sg10
F0.2415318489074707
sg11
F18.769092082977295
sasF1.0
(lp14
(dp15
g3
F625.0
sg4
I917
sg5
g6
sg7
I1225
sg8
I25
sg9
I50
sg10
F1.2515370845794678
sg11
F11.563360929489136
sa(dp16
g3
F625.0
sg4
I917
sg5
g6
sg7
I1225
sg8
I25
sg9
I50
sg10
F1.2054078578948975
sg11
F11.523997068405151
sa(dp17
g3
F625.0
sg4
I917
sg5
g6
sg7
I1225
sg8
I25
sg9
I50
sg10
F1.2290430068969727
sg11
F10.326767206192017
sasF0.2
(lp18
(dp19
g3
F103.0
sg4
I103
sg5
g6
sg7
I275
sg8
I25
sg9
I50
sg10
F0.07644987106323242
sg11
F8.410698175430298
sa(dp20
g3
F89.99999999999994
sg4
I101
sg5
g6
sg7
I243
sg8
I25
sg9
I50
sg10
F0.07666301727294922
sg11
F6.669163942337036
sa(dp21
g3
F100.74728260869566
sg4
I201
sg5
g6
sg7
I261
sg8
I25
sg9
I50
sg10
F0.15349602699279785
sg11
F4.103150844573975
sasF0.4
(lp22
(dp23
g3
F206.0
sg4
I206
sg5
g6
sg7
I481
sg8
I25
sg9
I50
sg10
F0.1679520606994629
sg11
F11.09837007522583
sa(dp24
g3
F190.0
sg4
I190
sg5
g6
sg7
I449
sg8
I25
sg9
I50
sg10
F0.14628982543945312
sg11
F9.735131978988647
sa(dp25
g3
F199.0
sg4
I199
sg5
g6
sg7
I471
sg8
I25
sg9
I50
sg10
F0.1629350185394287
sg11
F11.54509687423706
sasF0.8
(lp26
(dp27
g3
F476.0
sg4
I476
sg5
g6
sg7
I998
sg8
I25
sg9
I50
sg10
F0.4443051815032959
sg11
F16.35924005508423
sa(dp28
g3
F458.0
sg4
I458
sg5
g6
sg7
I961
sg8
I25
sg9
I50
sg10
F0.39324402809143066
sg11
F18.86835289001465
sa(dp29
g3
F465.0
sg4
I465
sg5
g6
sg7
I981
sg8
I25
sg9
I50
sg10
F0.47601985931396484
sg11
F18.527903079986572
sasF0.30000000000000004
(lp30
(dp31
g3
F152.00000000000006
sg4
I152
sg5
g6
sg7
I390
sg8
I25
sg9
I50
sg10
F0.11978006362915039
sg11
F11.529030084609985
sa(dp32
g3
F153.0
sg4
I153
sg5
g6
sg7
I372
sg8
I25
sg9
I50
sg10
F0.11133289337158203
sg11
F9.644139051437378
sa(dp33
g3
F131.9999999999999
sg4
I215
sg5
g6
sg7
I338
sg8
I25
sg9
I50
sg10
F0.21406817436218262
sg11
F8.05333685874939
sasF0.6
(lp34
(dp35
g3
F338.9999999999999
sg4
I339
sg5
g6
sg7
I744
sg8
I25
sg9
I50
sg10
F0.3285970687866211
sg11
F20.455715894699097
sa(dp36
g3
F335.0
sg4
I335
sg5
g6
sg7
I733
sg8
I25
sg9
I50
sg10
F0.32729005813598633
sg11
F15.941354990005493
sa(dp37
g3
F349.87393364928926
sg4
I559
sg5
g6
sg7
I757
sg8
I25
sg9
I50
sg10
F1.235482931137085
sg11
F10.75989294052124
sasF0.1
(lp38
(dp39
g3
F30.722891566265066
sg4
I71
sg5
g6
sg7
I103
sg8
I25
sg9
I50
sg10
F0.054154157638549805
sg11
F2.43025803565979
sa(dp40
g3
F42.5
sg4
I54
sg5
g6
sg7
I133
sg8
I25
sg9
I50
sg10
F0.04152798652648926
sg11
F3.916759967803955
sa(dp41
g3
F43.9158878504673
sg4
I92
sg5
g6
sg7
I131
sg8
I25
sg9
I50
sg10
F0.07721495628356934
sg11
F2.8442890644073486
sasF0.9
(lp42
(dp43
g3
F550.0
sg4
I550
sg5
g6
sg7
I1120
sg8
I25
sg9
I50
sg10
F0.4184300899505615
sg11
F21.025869846343994
sa(dp44
g3
F548.0
sg4
I548
sg5
g6
sg7
I1114
sg8
I25
sg9
I50
sg10
F0.5840229988098145
sg11
F21.453024864196777
sa(dp45
g3
F543.0
sg4
I543
sg5
g6
sg7
I1109
sg8
I25
sg9
I50
sg10
F0.5472879409790039
sg11
F26.430382013320923
sasF0.7000000000000001
(lp46
(dp47
g3
F385.9999999999999
sg4
I386
sg5
g6
sg7
I838
sg8
I25
sg9
I50
sg10
F0.40305209159851074
sg11
F16.841222047805786
sa(dp48
g3
F401.3530950305143
sg4
I638
sg5
g6
sg7
I856
sg8
I25
sg9
I50
sg10
F1.0616939067840576
sg11
F9.08891487121582
sa(dp49
g3
F402.9132420091324
sg4
I653
sg5
g6
sg7
I860
sg8
I25
sg9
I50
sg10
F0.813438892364502
sg11
F10.189714193344116
sas.