(dp0
F0.5
(lp1
(dp2
S'obj_LP'
p3
F625.0
sS'obj_RG'
p4
I917
sS'type'
p5
S'rand'
p6
sS'm'
p7
I1225
sS'k'
p8
I25
sS'n'
p9
I50
sS't_solve_RG'
p10
F1.1173241138458252
sS't_solve_LP'
p11
F10.649401903152466
sa(dp12
g3
F625.0
sg4
I917
sg5
g6
sg7
I1225
sg8
I25
sg9
I50
sg10
F1.050935983657837
sg11
F12.399662017822266
sa(dp13
g3
F625.0
sg4
I917
sg5
g6
sg7
I1225
sg8
I25
sg9
I50
sg10
F1.309988021850586
sg11
F10.669461965560913
sasF1.0
(lp14
(dp15
g3
F625.0
sg4
I917
sg5
g6
sg7
I1225
sg8
I25
sg9
I50
sg10
F1.20853590965271
sg11
F10.921260118484497
sa(dp16
g3
F625.0
sg4
I917
sg5
g6
sg7
I1225
sg8
I25
sg9
I50
sg10
F1.3182411193847656
sg11
F10.811179876327515
sa(dp17
g3
F625.0
sg4
I917
sg5
g6
sg7
I1225
sg8
I25
sg9
I50
sg10
F1.0148780345916748
sg11
F11.327014207839966
sasF0.2
(lp18
(dp19
g3
F625.0
sg4
I917
sg5
g6
sg7
I1225
sg8
I25
sg9
I50
sg10
F1.387077808380127
sg11
F10.757803201675415
sa(dp20
g3
F625.0
sg4
I917
sg5
g6
sg7
I1225
sg8
I25
sg9
I50
sg10
F1.1905179023742676
sg11
F11.441335201263428
sa(dp21
g3
F625.0
sg4
I917
sg5
g6
sg7
I1225
sg8
I25
sg9
I50
sg10
F1.2101209163665771
sg11
F11.403543949127197
sasF0.4
(lp22
(dp23
g3
F625.0
sg4
I917
sg5
g6
sg7
I1225
sg8
I25
sg9
I50
sg10
F1.662118911743164
sg11
F11.448802947998047
sa(dp24
g3
F625.0
sg4
I917
sg5
g6
sg7
I1225
sg8
I25
sg9
I50
sg10
F1.002877950668335
sg11
F11.770936012268066
sa(dp25
g3
F625.0
sg4
I917
sg5
g6
sg7
I1225
sg8
I25
sg9
I50
sg10
F1.3487448692321777
sg11
F10.074986934661865
sasF0.8
(lp26
(dp27
g3
F625.0
sg4
I917
sg5
g6
sg7
I1225
sg8
I25
sg9
I50
sg10
F1.073720932006836
sg11
F10.726692914962769
sa(dp28
g3
F625.0
sg4
I917
sg5
g6
sg7
I1225
sg8
I25
sg9
I50
sg10
F1.1930220127105713
sg11
F10.374891996383667
sa(dp29
g3
F625.0
sg4
I917
sg5
g6
sg7
I1225
sg8
I25
sg9
I50
sg10
F1.136409044265747
sg11
F10.534121990203857
sasF0.30000000000000004
(lp30
(dp31
g3
F625.0
sg4
I917
sg5
g6
sg7
I1225
sg8
I25
sg9
I50
sg10
F1.548563003540039
sg11
F10.860623836517334
sa(dp32
g3
F625.0
sg4
I917
sg5
g6
sg7
I1225
sg8
I25
sg9
I50
sg10
F1.4168119430541992
sg11
F10.3191499710083
sa(dp33
g3
F625.0
sg4
I917
sg5
g6
sg7
I1225
sg8
I25
sg9
I50
sg10
F1.1858999729156494
sg11
F11.097614049911499
sasF0.6
(lp34
(dp35
g3
F625.0
sg4
I917
sg5
g6
sg7
I1225
sg8
I25
sg9
I50
sg10
F1.0006499290466309
sg11
F11.322237968444824
sa(dp36
g3
F625.0
sg4
I917
sg5
g6
sg7
I1225
sg8
I25
sg9
I50
sg10
F1.324796199798584
sg11
F10.60754108428955
sa(dp37
g3
F625.0
sg4
I917
sg5
g6
sg7
I1225
sg8
I25
sg9
I50
sg10
F1.5299930572509766
sg11
F11.5
sasF0.1
(lp38
(dp39
g3
F625.0
sg4
I917
sg5
g6
sg7
I1225
sg8
I25
sg9
I50
sg10
F1.1656560897827148
sg11
F11.515162944793701
sa(dp40
g3
F625.0
sg4
I917
sg5
g6
sg7
I1225
sg8
I25
sg9
I50
sg10
F1.2310378551483154
sg11
F11.917197942733765
sa(dp41
g3
F625.0
sg4
I917
sg5
g6
sg7
I1225
sg8
I25
sg9
I50
sg10
F1.1825909614562988
sg11
F11.474303960800171
sasF0.9
(lp42
(dp43
g3
F625.0
sg4
I917
sg5
g6
sg7
I1225
sg8
I25
sg9
I50
sg10
F1.3776979446411133
sg11
F10.631468057632446
sa(dp44
g3
F625.0
sg4
I917
sg5
g6
sg7
I1225
sg8
I25
sg9
I50
sg10
F1.866042137145996
sg11
F11.535430908203125
sa(dp45
g3
F625.0
sg4
I917
sg5
g6
sg7
I1225
sg8
I25
sg9
I50
sg10
F1.2062771320343018
sg11
F10.141520023345947
sasF0.7000000000000001
(lp46
(dp47
g3
F625.0
sg4
I917
sg5
g6
sg7
I1225
sg8
I25
sg9
I50
sg10
F1.4339330196380615
sg11
F12.264526128768921
sa(dp48
g3
F625.0
sg4
I917
sg5
g6
sg7
I1225
sg8
I25
sg9
I50
sg10
F1.0439269542694092
sg11
F11.379074096679688
sa(dp49
g3
F625.0
sg4
I917
sg5
g6
sg7
I1225
sg8
I25
sg9
I50
sg10
F1.2543258666992188
sg11
F11.61298394203186
sas.