(dp0
F0.5
(lp1
(dp2
S'obj_LP'
p3
F283.0
sS'obj_RG'
p4
I283
sS'type'
p5
S'rand'
p6
sS'm'
p7
I639
sS'k'
p8
I25
sS'n'
p9
I50
sS't_solve_RG'
p10
F0.25261878967285156
sS't_solve_LP'
p11
F17.511878967285156
sa(dp12
g3
F260.0
sg4
I260
sg5
g6
sg7
I599
sg8
I25
sg9
I50
sg10
F0.2519700527191162
sg11
F18.377743005752563
sa(dp13
g3
F271.0
sg4
I271
sg5
g6
sg7
I616
sg8
I25
sg9
I50
sg10
F0.2391519546508789
sg11
F19.34613013267517
sa(dp14
g3
F268.0
sg4
I268
sg5
g6
sg7
I604
sg8
I25
sg9
I50
sg10
F0.23122406005859375
sg11
F15.123864889144897
sa(dp15
g3
F291.5893609550562
sg4
I505
sg5
g6
sg7
I645
sg8
I25
sg9
I50
sg10
F0.7215530872344971
sg11
F8.955811977386475
sa(dp16
g3
F276.0
sg4
I276
sg5
g6
sg7
I618
sg8
I25
sg9
I50
sg10
F0.23990392684936523
sg11
F15.890044927597046
sa(dp17
g3
F270.7171911796188
sg4
I456
sg5
g6
sg7
I613
sg8
I25
sg9
I50
sg10
F0.8279330730438232
sg11
F9.350270986557007
sa(dp18
g3
F263.0
sg4
I263
sg5
g6
sg7
I614
sg8
I25
sg9
I50
sg10
F0.23859190940856934
sg11
F15.748533010482788
sasF1.0
(lp19
(dp20
g3
F625.0
sg4
I917
sg5
g6
sg7
I1225
sg8
I25
sg9
I50
sg10
F1.1727650165557861
sg11
F13.444523811340332
sa(dp21
g3
F625.0
sg4
I917
sg5
g6
sg7
I1225
sg8
I25
sg9
I50
sg10
F1.0000300407409668
sg11
F9.828015089035034
sa(dp22
g3
F625.0
sg4
I917
sg5
g6
sg7
I1225
sg8
I25
sg9
I50
sg10
F1.187180995941162
sg11
F10.918825149536133
sa(dp23
g3
F625.0
sg4
I917
sg5
g6
sg7
I1225
sg8
I25
sg9
I50
sg10
F1.5785751342773438
sg11
F11.293365001678467
sa(dp24
g3
F625.0
sg4
I917
sg5
g6
sg7
I1225
sg8
I25
sg9
I50
sg10
F1.0592098236083984
sg11
F11.094933032989502
sa(dp25
g3
F625.0
sg4
I917
sg5
g6
sg7
I1225
sg8
I25
sg9
I50
sg10
F1.165903091430664
sg11
F11.442722797393799
sa(dp26
g3
F625.0
sg4
I917
sg5
g6
sg7
I1225
sg8
I25
sg9
I50
sg10
F1.5859041213989258
sg11
F11.531909942626953
sa(dp27
g3
F625.0
sg4
I917
sg5
g6
sg7
I1225
sg8
I25
sg9
I50
sg10
F1.2273211479187012
sg11
F12.266298055648804
sasF0.2
(lp28
(dp29
g3
F91.99999999999991
sg4
I92
sg5
g6
sg7
I249
sg8
I25
sg9
I50
sg10
F0.06743788719177246
sg11
F6.500865936279297
sa(dp30
g3
F89.0
sg4
I89
sg5
g6
sg7
I240
sg8
I25
sg9
I50
sg10
F0.06437993049621582
sg11
F6.886102914810181
sa(dp31
g3
F89.00000000000001
sg4
I125
sg5
g6
sg7
I243
sg8
I25
sg9
I50
sg10
F0.08082199096679688
sg11
F6.370544910430908
sa(dp32
g3
F83.0
sg4
I83
sg5
g6
sg7
I235
sg8
I25
sg9
I50
sg10
F0.06350922584533691
sg11
F5.511192083358765
sa(dp33
g3
F88.99999999999989
sg4
I93
sg5
g6
sg7
I238
sg8
I25
sg9
I50
sg10
F0.06885910034179688
sg11
F6.89239501953125
sa(dp34
g3
F91.47489239598279
sg4
I184
sg5
g6
sg7
I242
sg8
I25
sg9
I50
sg10
F0.17298603057861328
sg11
F5.118144989013672
sa(dp35
g3
F96.0
sg4
I96
sg5
g6
sg7
I252
sg8
I25
sg9
I50
sg10
F0.0687110424041748
sg11
F5.706418037414551
sa(dp36
g3
F91.0
sg4
I91
sg5
g6
sg7
I240
sg8
I25
sg9
I50
sg10
F0.06510210037231445
sg11
F6.338855981826782
sasF0.4
(lp37
(dp38
g3
F195.0
sg4
I195
sg5
g6
sg7
I470
sg8
I25
sg9
I50
sg10
F0.16258502006530762
sg11
F11.890734910964966
sa(dp39
g3
F203.00000000000003
sg4
I203
sg5
g6
sg7
I476
sg8
I25
sg9
I50
sg10
F0.15910792350769043
sg11
F12.667119026184082
sa(dp40
g3
F204.0
sg4
I204
sg5
g6
sg7
I484
sg8
I25
sg9
I50
sg10
F0.16392898559570312
sg11
F12.286432027816772
sa(dp41
g3
F201.0
sg4
I201
sg5
g6
sg7
I490
sg8
I25
sg9
I50
sg10
F0.16654205322265625
sg11
F13.553934097290039
sa(dp42
g3
F214.0
sg4
I214
sg5
g6
sg7
I496
sg8
I25
sg9
I50
sg10
F0.17650508880615234
sg11
F12.836462020874023
sa(dp43
g3
F210.0
sg4
I210
sg5
g6
sg7
I506
sg8
I25
sg9
I50
sg10
F0.1750049591064453
sg11
F12.66402006149292
sa(dp44
g3
F202.0
sg4
I202
sg5
g6
sg7
I480
sg8
I25
sg9
I50
sg10
F0.16286993026733398
sg11
F11.151058197021484
sa(dp45
g3
F201.99999999999986
sg4
I202
sg5
g6
sg7
I481
sg8
I25
sg9
I50
sg10
F0.1690990924835205
sg11
F13.098253965377808
sasF0.8
(lp46
(dp47
g3
F461.0
sg4
I461
sg5
g6
sg7
I984
sg8
I25
sg9
I50
sg10
F0.3152279853820801
sg11
F20.063299894332886
sa(dp48
g3
F463.0
sg4
I463
sg5
g6
sg7
I973
sg8
I25
sg9
I50
sg10
F0.38401317596435547
sg11
F19.326709032058716
sa(dp49
g3
F468.0
sg4
I468
sg5
g6
sg7
I985
sg8
I25
sg9
I50
sg10
F0.4995758533477783
sg11
F20.074916124343872
sa(dp50
g3
F462.0
sg4
I462
sg5
g6
sg7
I980
sg8
I25
sg9
I50
sg10
F0.2245171070098877
sg11
F22.471383094787598
sa(dp51
g3
F463.0
sg4
I463
sg5
g6
sg7
I979
sg8
I25
sg9
I50
sg10
F0.48383283615112305
sg11
F22.693238973617554
sa(dp52
g3
F465.0
sg4
I465
sg5
g6
sg7
I976
sg8
I25
sg9
I50
sg10
F0.5269877910614014
sg11
F21.071799993515015
sa(dp53
g3
F459.0
sg4
I459
sg5
g6
sg7
I967
sg8
I25
sg9
I50
sg10
F0.4974639415740967
sg11
F19.361459970474243
sa(dp54
g3
F461.0
sg4
I461
sg5
g6
sg7
I969
sg8
I25
sg9
I50
sg10
F0.48428916931152344
sg11
F19.15694808959961
sasF0.30000000000000004
(lp55
(dp56
g3
F146.0
sg4
I146
sg5
g6
sg7
I357
sg8
I25
sg9
I50
sg10
F0.10984587669372559
sg11
F9.909960985183716
sa(dp57
g3
F149.0
sg4
I149
sg5
g6
sg7
I361
sg8
I25
sg9
I50
sg10
F0.10738801956176758
sg11
F9.784108877182007
sa(dp58
g3
F136.0
sg4
I136
sg5
g6
sg7
I348
sg8
I25
sg9
I50
sg10
F0.1029820442199707
sg11
F9.131501197814941
sa(dp59
g3
F147.8359375
sg4
I269
sg5
g6
sg7
I356
sg8
I25
sg9
I50
sg10
F0.31637001037597656
sg11
F5.641213893890381
sa(dp60
g3
F146.87852702056423
sg4
I270
sg5
g6
sg7
I355
sg8
I25
sg9
I50
sg10
F0.3180561065673828
sg11
F6.6101720333099365
sa(dp61
g3
F141.0
sg4
I141
sg5
g6
sg7
I352
sg8
I25
sg9
I50
sg10
F0.10342597961425781
sg11
F7.708428859710693
sa(dp62
g3
F161.0
sg4
I161
sg5
g6
sg7
I389
sg8
I25
sg9
I50
sg10
F0.11841106414794922
sg11
F9.80921196937561
sa(dp63
g3
F139.0
sg4
I139
sg5
g6
sg7
I350
sg8
I25
sg9
I50
sg10
F0.10264205932617188
sg11
F9.61550498008728
sasF0.6
(lp64
(dp65
g3
F348.0
sg4
I348
sg5
g6
sg7
I760
sg8
I25
sg9
I50
sg10
F0.3450641632080078
sg11
F18.81662917137146
sa(dp66
g3
F336.0
sg4
I336
sg5
g6
sg7
I739
sg8
I25
sg9
I50
sg10
F0.31111812591552734
sg11
F20.31546187400818
sa(dp67
g3
F332.0
sg4
I332
sg5
g6
sg7
I740
sg8
I25
sg9
I50
sg10
F0.314791202545166
sg11
F16.4582781791687
sa(dp68
g3
F337.0
sg4
I337
sg5
g6
sg7
I747
sg8
I25
sg9
I50
sg10
F0.3305671215057373
sg11
F17.146902799606323
sa(dp69
g3
F330.0
sg4
I330
sg5
g6
sg7
I726
sg8
I25
sg9
I50
sg10
F0.30479907989501953
sg11
F20.702718019485474
sa(dp70
g3
F325.0
sg4
I325
sg5
g6
sg7
I726
sg8
I25
sg9
I50
sg10
F0.3213310241699219
sg11
F18.247634887695312
sa(dp71
g3
F339.9516129032257
sg4
I551
sg5
g6
sg7
I743
sg8
I25
sg9
I50
sg10
F0.857374906539917
sg11
F10.234354019165039
sa(dp72
g3
F334.00000000000006
sg4
I334
sg5
g6
sg7
I736
sg8
I25
sg9
I50
sg10
F0.32953810691833496
sg11
F18.69899606704712
sasF0.1
(lp73
(dp74
g3
F33.0
sg4
I33
sg5
g6
sg7
I116
sg8
I25
sg9
I50
sg10
F0.03421807289123535
sg11
F3.043975830078125
sa(dp75
g3
F31.619047619047592
sg4
I67
sg5
g6
sg7
I107
sg8
I25
sg9
I50
sg10
F0.05578494071960449
sg11
F2.5695669651031494
sa(dp76
g3
F37.18181818181819
sg4
I86
sg5
g6
sg7
I120
sg8
I25
sg9
I50
sg10
F0.06216716766357422
sg11
F2.4265007972717285
sa(dp77
g3
F42.160000000000004
sg4
I95
sg5
g6
sg7
I128
sg8
I25
sg9
I50
sg10
F0.08144187927246094
sg11
F2.500643014907837
sa(dp78
g3
F33.999999999999986
sg4
I34
sg5
g6
sg7
I115
sg8
I25
sg9
I50
sg10
F0.03433108329772949
sg11
F3.127371072769165
sa(dp79
g3
F40.0
sg4
I40
sg5
g6
sg7
I132
sg8
I25
sg9
I50
sg10
F0.03767800331115723
sg11
F3.450986862182617
sa(dp80
g3
F35.59999999999997
sg4
I71
sg5
g6
sg7
I120
sg8
I25
sg9
I50
sg10
F0.049117088317871094
sg11
F3.056049108505249
sa(dp81
g3
F35.0
sg4
I57
sg5
g6
sg7
I119
sg8
I25
sg9
I50
sg10
F0.04320383071899414
sg11
F2.744926929473877
sasF0.9
(lp82
(dp83
g3
F537.9999999999998
sg4
I705
sg5
g6
sg7
I1107
sg8
I25
sg9
I50
sg10
F0.8316049575805664
sg11
F21.51373791694641
sa(dp84
g3
F537.0
sg4
I537
sg5
g6
sg7
I1109
sg8
I25
sg9
I50
sg10
F0.5071628093719482
sg11
F26.693860054016113
sa(dp85
g3
F536.0
sg4
I536
sg5
g6
sg7
I1094
sg8
I25
sg9
I50
sg10
F0.43285512924194336
sg11
F22.299318075180054
sa(dp86
g3
F543.0
sg4
I543
sg5
g6
sg7
I1112
sg8
I25
sg9
I50
sg10
F0.3414762020111084
sg11
F19.914616107940674
sa(dp87
g3
F528.0
sg4
I528
sg5
g6
sg7
I1086
sg8
I25
sg9
I50
sg10
F0.45818614959716797
sg11
F19.65203285217285
sa(dp88
g3
F542.0
sg4
I542
sg5
g6
sg7
I1107
sg8
I25
sg9
I50
sg10
F0.6621530055999756
sg11
F14.67417597770691
sa(dp89
g3
F543.0
sg4
I543
sg5
g6
sg7
I1109
sg8
I25
sg9
I50
sg10
F0.6594059467315674
sg11
F19.51966905593872
sa(dp90
g3
F533.0
sg4
I533
sg5
g6
sg7
I1096
sg8
I25
sg9
I50
sg10
F0.6073439121246338
sg11
F20.701265811920166
sasF0.7000000000000001
(lp91
(dp92
g3
F384.0
sg4
I384
sg5
g6
sg7
I836
sg8
I25
sg9
I50
sg10
F0.4016990661621094
sg11
F17.74266004562378
sa(dp93
g3
F408.0
sg4
I408
sg5
g6
sg7
I879
sg8
I25
sg9
I50
sg10
F0.43717408180236816
sg11
F16.91670799255371
sa(dp94
g3
F385.0
sg4
I385
sg5
g6
sg7
I846
sg8
I25
sg9
I50
sg10
F0.4090900421142578
sg11
F20.360735177993774
sa(dp95
g3
F413.0
sg4
I413
sg5
g6
sg7
I883
sg8
I25
sg9
I50
sg10
F0.25542187690734863
sg11
F21.222233057022095
sa(dp96
g3
F401.0
sg4
I401
sg5
g6
sg7
I859
sg8
I25
sg9
I50
sg10
F0.420712947845459
sg11
F19.551426887512207
sa(dp97
g3
F388.0
sg4
I388
sg5
g6
sg7
I854
sg8
I25
sg9
I50
sg10
F0.394636869430542
sg11
F20.703853130340576
sa(dp98
g3
F392.00000000000006
sg4
I392
sg5
g6
sg7
I858
sg8
I25
sg9
I50
sg10
F0.3432149887084961
sg11
F18.147629976272583
sa(dp99
g3
F406.83233532934116
sg4
I648
sg5
g6
sg7
I870
sg8
I25
sg9
I50
sg10
F0.965709924697876
sg11
F10.299433946609497
sas.