(dp0
I70
(lp1
(dp2
S'obj_LP'
p3
F136.99999999999997
sS'obj_IP'
p4
NsS'obj_RG'
p5
I165
sS'type'
p6
S'rand'
p7
sS'k'
p8
I14
sS't_solve_IP'
p9
F7.152557373046875e-06
sS'n'
p10
I70
sS'm'
p11
I520
sS't_solve:RG'
p12
F0.28014206886291504
sS't_solve_LP'
p13
F47.03776407241821
sa(dp14
g3
F122.99999999999999
sg4
Nsg5
I123
sg6
g7
sg8
I14
sg9
F6.9141387939453125e-06
sg10
I70
sg11
I468
sg12
F0.1454029083251953
sg13
F41.55755400657654
sa(dp15
g3
F122.00000000000013
sg4
Nsg5
I123
sg6
g7
sg8
I14
sg9
F1.9073486328125e-06
sg10
I70
sg11
I479
sg12
F0.1767590045928955
sg13
F46.421968936920166
sa(dp16
g3
F126.00000000000006
sg4
Nsg5
I142
sg6
g7
sg8
I14
sg9
F1.9073486328125e-06
sg10
I70
sg11
I477
sg12
F0.28232288360595703
sg13
F31.60103487968445
sa(dp17
g3
F148.99999999999957
sg4
Nsg5
I247
sg6
g7
sg8
I14
sg9
F6.9141387939453125e-06
sg10
I70
sg11
I538
sg12
F0.46852803230285645
sg13
F34.8638379573822
sasI40
(lp18
(dp19
g3
F38.0
sg4
Nsg5
I38
sg6
g7
sg8
I8
sg9
F2.1457672119140625e-06
sg10
I40
sg11
I159
sg12
F0.022303104400634766
sg13
F2.7022769451141357
sa(dp20
g3
F50.0
sg4
Nsg5
I50
sg6
g7
sg8
I8
sg9
F9.5367431640625e-07
sg10
I40
sg11
I159
sg12
F0.009055852890014648
sg13
F1.6204090118408203
sa(dp21
g3
F40.0
sg4
Nsg5
I40
sg6
g7
sg8
I8
sg9
F1.1920928955078125e-06
sg10
I40
sg11
I146
sg12
F0.02329397201538086
sg13
F2.2354319095611572
sa(dp22
g3
F43.0
sg4
Nsg5
I43
sg6
g7
sg8
I8
sg9
F9.5367431640625e-07
sg10
I40
sg11
I163
sg12
F0.02793407440185547
sg13
F2.4498372077941895
sa(dp23
g3
F45.0
sg4
Nsg5
I45
sg6
g7
sg8
I8
sg9
F2.1457672119140625e-06
sg10
I40
sg11
I172
sg12
F0.025206804275512695
sg13
F2.331536054611206
sasI10
(lp24
(dp25
g3
F2.0
sg4
Nsg5
I2
sg6
g7
sg8
I2
sg9
F2.1457672119140625e-06
sg10
I10
sg11
I10
sg12
F0.0006380081176757812
sg13
F0.08360099792480469
sa(dp26
g3
F0.0
sg4
Nsg5
I0
sg6
g7
sg8
I2
sg9
F1.9073486328125e-06
sg10
I10
sg11
I5
sg12
F0.00022792816162109375
sg13
F0.08042407035827637
sa(dp27
g3
F1.0
sg4
Nsg5
I1
sg6
g7
sg8
I2
sg9
F0.0
sg10
I10
sg11
I12
sg12
F0.00047206878662109375
sg13
F0.07989001274108887
sa(dp28
g3
F2.0
sg4
Nsg5
I2
sg6
g7
sg8
I2
sg9
F9.5367431640625e-07
sg10
I10
sg11
I9
sg12
F0.0006949901580810547
sg13
F0.06666803359985352
sa(dp29
g3
F2.0
sg4
Nsg5
I2
sg6
g7
sg8
I2
sg9
F9.5367431640625e-07
sg10
I10
sg11
I7
sg12
F0.0003631114959716797
sg13
F0.06290602684020996
sasI50
(lp30
(dp31
g3
F64.0
sg4
Nsg5
I64
sg6
g7
sg8
I10
sg9
F1.9073486328125e-06
sg10
I50
sg11
I268
sg12
F0.054945945739746094
sg13
F5.3076560497283936
sa(dp32
g3
F66.0
sg4
Nsg5
I66
sg6
g7
sg8
I10
sg9
F9.5367431640625e-07
sg10
I50
sg11
I253
sg12
F0.04902815818786621
sg13
F5.4981629848480225
sa(dp33
g3
F69.0
sg4
Nsg5
I69
sg6
g7
sg8
I10
sg9
F1.9073486328125e-06
sg10
I50
sg11
I258
sg12
F0.05044293403625488
sg13
F7.809952020645142
sa(dp34
g3
F58.0
sg4
Nsg5
I58
sg6
g7
sg8
I10
sg9
F1.9073486328125e-06
sg10
I50
sg11
I234
sg12
F0.044007062911987305
sg13
F3.4564661979675293
sa(dp35
g3
F67.0
sg4
Nsg5
I67
sg6
g7
sg8
I10
sg9
F1.9073486328125e-06
sg10
I50
sg11
I276
sg12
F0.0550079345703125
sg13
F5.230188846588135
sasI20
(lp36
(dp37
g3
F9.0
sg4
Nsg5
I9
sg6
g7
sg8
I4
sg9
F2.1457672119140625e-06
sg10
I20
sg11
I39
sg12
F0.0035130977630615234
sg13
F0.27288293838500977
sa(dp38
g3
F5.0
sg4
Nsg5
I5
sg6
g7
sg8
I4
sg9
F9.5367431640625e-07
sg10
I20
sg11
I26
sg12
F0.0019919872283935547
sg13
F0.18080997467041016
sa(dp39
g3
F7.0
sg4
Nsg5
I7
sg6
g7
sg8
I4
sg9
F1.9073486328125e-06
sg10
I20
sg11
I43
sg12
F0.003059864044189453
sg13
F0.32616591453552246
sa(dp40
g3
F4.0
sg4
Nsg5
I4
sg6
g7
sg8
I4
sg9
F9.5367431640625e-07
sg10
I20
sg11
I28
sg12
F0.0020461082458496094
sg13
F0.19430112838745117
sa(dp41
g3
F8.0
sg4
Nsg5
I8
sg6
g7
sg8
I4
sg9
F1.1920928955078125e-06
sg10
I20
sg11
I37
sg12
F0.0026400089263916016
sg13
F0.23158788681030273
sasI60
(lp42
(dp43
g3
F90.00000000000006
sg4
Nsg5
I108
sg6
g7
sg8
I12
sg9
F1.9073486328125e-06
sg10
I60
sg11
I343
sg12
F0.21577095985412598
sg13
F15.263333082199097
sa(dp44
g3
F90.99999999999974
sg4
Nsg5
I98
sg6
g7
sg8
I12
sg9
F1.9073486328125e-06
sg10
I60
sg11
I365
sg12
F0.1311650276184082
sg13
F17.424315929412842
sa(dp45
g3
F84.0
sg4
Nsg5
I84
sg6
g7
sg8
I12
sg9
F1.9073486328125e-06
sg10
I60
sg11
I336
sg12
F0.09610509872436523
sg13
F15.266370058059692
sa(dp46
g3
F93.0
sg4
Nsg5
I93
sg6
g7
sg8
I12
sg9
F1.9073486328125e-06
sg10
I60
sg11
I348
sg12
F0.08499503135681152
sg13
F14.555742025375366
sa(dp47
g3
F98.99999999999997
sg4
Nsg5
I99
sg6
g7
sg8
I12
sg9
F1.9073486328125e-06
sg10
I60
sg11
I358
sg12
F0.08902788162231445
sg13
F16.244678020477295
sasI30
(lp48
(dp49
g3
F21.0
sg4
Nsg5
I21
sg6
g7
sg8
I6
sg9
F9.5367431640625e-07
sg10
I30
sg11
I83
sg12
F0.008481979370117188
sg13
F0.7040250301361084
sa(dp50
g3
F29.0
sg4
Nsg5
I29
sg6
g7
sg8
I6
sg9
F1.1920928955078125e-06
sg10
I30
sg11
I100
sg12
F0.005045890808105469
sg13
F0.6234729290008545
sa(dp51
g3
F22.0
sg4
Nsg5
I22
sg6
g7
sg8
I6
sg9
F9.5367431640625e-07
sg10
I30
sg11
I83
sg12
F0.003445148468017578
sg13
F0.3704819679260254
sa(dp52
g3
F28.0
sg4
Nsg5
I28
sg6
g7
sg8
I6
sg9
F2.1457672119140625e-06
sg10
I30
sg11
I96
sg12
F0.009824991226196289
sg13
F0.8137490749359131
sa(dp53
g3
F21.0
sg4
Nsg5
I21
sg6
g7
sg8
I6
sg9
F1.1920928955078125e-06
sg10
I30
sg11
I89
sg12
F0.0077800750732421875
sg13
F0.6982629299163818
sas.