(dp0
I70
(lp1
(dp2
S'obj_LP'
p3
F147.0000000000113
sS'obj_IP'
p4
NsS'obj_RG'
p5
I158
sS'type'
p6
S'rand'
p7
sS'm'
p8
I512
sS't_solve_IP'
p9
F6.9141387939453125e-06
sS'n'
p10
I70
sS't_solve_RG'
p11
F0.195159912109375
sS'k'
p12
I14
sS't_solve_LP'
p13
F34.54664492607117
sa(dp14
g3
F132.00000000000227
sg4
Nsg5
I154
sg6
g7
sg8
I477
sg9
F2.1457672119140625e-06
sg10
I70
sg11
F0.19852304458618164
sg12
I14
sg13
F34.104938983917236
sa(dp15
g3
F131.00000000005352
sg4
Nsg5
I131
sg6
g7
sg8
I484
sg9
F7.152557373046875e-06
sg10
I70
sg11
F0.18710708618164062
sg12
I14
sg13
F34.46843910217285
sa(dp16
g3
F133.00000000000006
sg4
Nsg5
I133
sg6
g7
sg8
I482
sg9
F2.86102294921875e-06
sg10
I70
sg11
F0.15346503257751465
sg12
I14
sg13
F31.766645908355713
sa(dp17
g3
F142.0
sg4
Nsg5
I142
sg6
g7
sg8
I488
sg9
F1.9073486328125e-06
sg10
I70
sg11
F0.15555691719055176
sg12
I14
sg13
F29.54817795753479
sasI40
(lp18
(dp19
g3
F41.0
sg4
Nsg5
I41
sg6
g7
sg8
I155
sg9
F1.1920928955078125e-06
sg10
I40
sg11
F0.015800952911376953
sg12
I8
sg13
F1.0640239715576172
sa(dp20
g3
F44.0
sg4
Nsg5
I44
sg6
g7
sg8
I157
sg9
F1.9073486328125e-06
sg10
I40
sg11
F0.022563934326171875
sg12
I8
sg13
F2.291382074356079
sa(dp21
g3
F43.0
sg4
Nsg5
I43
sg6
g7
sg8
I158
sg9
F1.9073486328125e-06
sg10
I40
sg11
F0.02292609214782715
sg12
I8
sg13
F1.451888084411621
sa(dp22
g3
F36.0
sg4
Nsg5
I36
sg6
g7
sg8
I159
sg9
F9.5367431640625e-07
sg10
I40
sg11
F0.009204864501953125
sg12
I8
sg13
F1.161180019378662
sa(dp23
g3
F35.0
sg4
Nsg5
I35
sg6
g7
sg8
I151
sg9
F9.5367431640625e-07
sg10
I40
sg11
F0.00853586196899414
sg12
I8
sg13
F0.865272045135498
sasI10
(lp24
(dp25
g3
F1.0
sg4
Nsg5
I1
sg6
g7
sg8
I8
sg9
F9.5367431640625e-07
sg10
I10
sg11
F0.0004680156707763672
sg12
I2
sg13
F0.04340815544128418
sa(dp26
g3
F1.0
sg4
Nsg5
I1
sg6
g7
sg8
I5
sg9
F9.5367431640625e-07
sg10
I10
sg11
F0.00030303001403808594
sg12
I2
sg13
F0.030424118041992188
sa(dp27
g3
F4.0
sg4
Nsg5
I4
sg6
g7
sg8
I13
sg9
F9.5367431640625e-07
sg10
I10
sg11
F0.0006530284881591797
sg12
I2
sg13
F0.05009007453918457
sa(dp28
g3
F4.0
sg4
Nsg5
I4
sg6
g7
sg8
I14
sg9
F1.9073486328125e-06
sg10
I10
sg11
F0.0006010532379150391
sg12
I2
sg13
F0.05312609672546387
sa(dp29
g3
F0.0
sg4
Nsg5
I0
sg6
g7
sg8
I9
sg9
F1.1920928955078125e-06
sg10
I10
sg11
F0.0003058910369873047
sg12
I2
sg13
F0.03952288627624512
sasI50
(lp30
(dp31
g3
F72.0
sg4
Nsg5
I72
sg6
g7
sg8
I236
sg9
F1.9073486328125e-06
sg10
I50
sg11
F0.04463505744934082
sg12
I10
sg13
F6.99635910987854
sa(dp32
g3
F68.0
sg4
Nsg5
I68
sg6
g7
sg8
I255
sg9
F2.1457672119140625e-06
sg10
I50
sg11
F0.0205838680267334
sg12
I10
sg13
F6.014014959335327
sa(dp33
g3
F64.00000000000001
sg4
Nsg5
I64
sg6
g7
sg8
I247
sg9
F1.9073486328125e-06
sg10
I50
sg11
F0.05579781532287598
sg12
I10
sg13
F7.180261850357056
sa(dp34
g3
F67.0
sg4
Nsg5
I67
sg6
g7
sg8
I249
sg9
F1.9073486328125e-06
sg10
I50
sg11
F0.04785299301147461
sg12
I10
sg13
F7.504363775253296
sa(dp35
g3
F61.0
sg4
Nsg5
I70
sg6
g7
sg8
I233
sg9
F1.0013580322265625e-05
sg10
I50
sg11
F0.05097699165344238
sg12
I10
sg13
F7.955688953399658
sasI20
(lp36
(dp37
g3
F7.0
sg4
Nsg5
I7
sg6
g7
sg8
I33
sg9
F1.9073486328125e-06
sg10
I20
sg11
F0.0023779869079589844
sg12
I4
sg13
F0.19336199760437012
sa(dp38
g3
F9.0
sg4
Nsg5
I9
sg6
g7
sg8
I39
sg9
F9.5367431640625e-07
sg10
I20
sg11
F0.0028150081634521484
sg12
I4
sg13
F0.22735095024108887
sa(dp39
g3
F8.0
sg4
Nsg5
I8
sg6
g7
sg8
I34
sg9
F9.5367431640625e-07
sg10
I20
sg11
F0.002891063690185547
sg12
I4
sg13
F0.2055821418762207
sa(dp40
g3
F4.0
sg4
Nsg5
I4
sg6
g7
sg8
I35
sg9
F9.5367431640625e-07
sg10
I20
sg11
F0.0025680065155029297
sg12
I4
sg13
F0.20205903053283691
sa(dp41
g3
F12.0
sg4
Nsg5
I12
sg6
g7
sg8
I40
sg9
F1.1920928955078125e-06
sg10
I20
sg11
F0.002306222915649414
sg12
I4
sg13
F0.22723793983459473
sasI60
(lp42
(dp43
g3
F101.0
sg4
Nsg5
I101
sg6
g7
sg8
I368
sg9
F1.9073486328125e-06
sg10
I60
sg11
F0.09382987022399902
sg12
I12
sg13
F14.294769048690796
sa(dp44
g3
F93.00000000000004
sg4
Nsg5
I107
sg6
g7
sg8
I338
sg9
F2.86102294921875e-06
sg10
I60
sg11
F0.11488699913024902
sg12
I12
sg13
F15.053673028945923
sa(dp45
g3
F89.00000000000003
sg4
Nsg5
I89
sg6
g7
sg8
I349
sg9
F1.9073486328125e-06
sg10
I60
sg11
F0.08705592155456543
sg12
I12
sg13
F13.889200925827026
sa(dp46
g3
F88.00000000000028
sg4
Nsg5
I88
sg6
g7
sg8
I339
sg9
F1.9073486328125e-06
sg10
I60
sg11
F0.0895230770111084
sg12
I12
sg13
F13.240774154663086
sa(dp47
g3
F107.00000000000004
sg4
Nsg5
I107
sg6
g7
sg8
I382
sg9
F1.9073486328125e-06
sg10
I60
sg11
F0.09963703155517578
sg12
I12
sg13
F16.379791975021362
sasI30
(lp48
(dp49
g3
F21.0
sg4
Nsg5
I21
sg6
g7
sg8
I82
sg9
F9.5367431640625e-07
sg10
I30
sg11
F0.0033791065216064453
sg12
I6
sg13
F0.5192770957946777
sa(dp50
g3
F19.0
sg4
Nsg5
I19
sg6
g7
sg8
I75
sg9
F1.1920928955078125e-06
sg10
I30
sg11
F0.0030889511108398438
sg12
I6
sg13
F0.24576687812805176
sa(dp51
g3
F19.0
sg4
Nsg5
I19
sg6
g7
sg8
I78
sg9
F9.5367431640625e-07
sg10
I30
sg11
F0.0031740665435791016
sg12
I6
sg13
F0.2526369094848633
sa(dp52
g3
F18.0
sg4
Nsg5
I18
sg6
g7
sg8
I87
sg9
F1.9073486328125e-06
sg10
I30
sg11
F0.004565000534057617
sg12
I6
sg13
F0.2743558883666992
sa(dp53
g3
F14.0
sg4
Nsg5
I14
sg6
g7
sg8
I90
sg9
F2.1457672119140625e-06
sg10
I30
sg11
F0.009576082229614258
sg12
I6
sg13
F0.46482396125793457
sas.